;******************************************************************************
;* MSP430 C/C++ Codegen                                             PC v4.4.3 *
;* Date/Time created: Sat Aug 08 18:25:37 2015                                *
;******************************************************************************
	.compiler_opts --abi=eabi --diag_wrap=off --hll_source=on --mem_model:code=large --mem_model:data=large --object_format=elf --silicon_version=mspx --symdebug:dwarf --symdebug:dwarf_version=3 

$C$DW$CU	.dwtag  DW_TAG_compile_unit
	.dwattr $C$DW$CU, DW_AT_name("../print_result.c")
	.dwattr $C$DW$CU, DW_AT_producer("TI MSP430 C/C++ Codegen PC v4.4.3 Copyright (c) 2003-2015 Texas Instruments Incorporated")
	.dwattr $C$DW$CU, DW_AT_TI_version(0x01)
	.dwattr $C$DW$CU, DW_AT_comp_dir("F:\Study\Work\CCS_Workspace\PUF\Debug")

$C$DW$1	.dwtag  DW_TAG_subprogram, DW_AT_name("transmit_115200")
	.dwattr $C$DW$1, DW_AT_TI_symbol_name("transmit_115200")
	.dwattr $C$DW$1, DW_AT_declaration
	.dwattr $C$DW$1, DW_AT_external
	.dwattr $C$DW$1, DW_AT_decl_file("F:\Study\MTech\Project\PUFF DATA IIT-M(From Anthony)\PUF Gen_Support\ADC-DAC\lib\uart.h")
	.dwattr $C$DW$1, DW_AT_decl_line(0x09)
	.dwattr $C$DW$1, DW_AT_decl_column(0x06)
$C$DW$2	.dwtag  DW_TAG_formal_parameter
	.dwattr $C$DW$2, DW_AT_type(*$C$DW$T$6)
	.dwendtag $C$DW$1

	.global	logo
	.sect	".data:logo", RW
	.clink
	.align	2
	.elfsym	logo,SYM_SIZE(280)
logo:
	.bits	61,8			; logo[0] @ 0
	.bits	61,8			; logo[1] @ 8
	.bits	61,8			; logo[2] @ 16
	.bits	61,8			; logo[3] @ 24
	.bits	61,8			; logo[4] @ 32
	.bits	61,8			; logo[5] @ 40
	.bits	61,8			; logo[6] @ 48
	.bits	61,8			; logo[7] @ 56
	.bits	61,8			; logo[8] @ 64
	.bits	61,8			; logo[9] @ 72
	.bits	61,8			; logo[10] @ 80
	.bits	61,8			; logo[11] @ 88
	.bits	61,8			; logo[12] @ 96
	.bits	61,8			; logo[13] @ 104
	.bits	61,8			; logo[14] @ 112
	.bits	61,8			; logo[15] @ 120
	.bits	61,8			; logo[16] @ 128
	.bits	61,8			; logo[17] @ 136
	.bits	61,8			; logo[18] @ 144
	.bits	61,8			; logo[19] @ 152
	.bits	61,8			; logo[20] @ 160
	.bits	61,8			; logo[21] @ 168
	.bits	61,8			; logo[22] @ 176
	.bits	61,8			; logo[23] @ 184
	.bits	61,8			; logo[24] @ 192
	.bits	61,8			; logo[25] @ 200
	.bits	61,8			; logo[26] @ 208
	.bits	61,8			; logo[27] @ 216
	.bits	61,8			; logo[28] @ 224
	.bits	61,8			; logo[29] @ 232
	.bits	61,8			; logo[30] @ 240
	.bits	61,8			; logo[31] @ 248
	.bits	61,8			; logo[32] @ 256
	.bits	61,8			; logo[33] @ 264
	.bits	61,8			; logo[34] @ 272
	.bits	61,8			; logo[35] @ 280
	.bits	61,8			; logo[36] @ 288
	.bits	61,8			; logo[37] @ 296
	.bits	61,8			; logo[38] @ 304
	.bits	61,8			; logo[39] @ 312
	.bits	61,8			; logo[40] @ 320
	.bits	61,8			; logo[41] @ 328
	.bits	61,8			; logo[42] @ 336
	.bits	61,8			; logo[43] @ 344
	.bits	61,8			; logo[44] @ 352
	.bits	61,8			; logo[45] @ 360
	.bits	61,8			; logo[46] @ 368
	.bits	61,8			; logo[47] @ 376
	.bits	61,8			; logo[48] @ 384
	.bits	61,8			; logo[49] @ 392
	.bits	61,8			; logo[50] @ 400
	.bits	61,8			; logo[51] @ 408
	.bits	61,8			; logo[52] @ 416
	.bits	61,8			; logo[53] @ 424
	.bits	61,8			; logo[54] @ 432
	.bits	61,8			; logo[55] @ 440
	.bits	61,8			; logo[56] @ 448
	.bits	61,8			; logo[57] @ 456
	.bits	10,8			; logo[58] @ 464
	.bits	13,8			; logo[59] @ 472
	.bits	42,8			; logo[60] @ 480
	.bits	9,8			; logo[61] @ 488
	.bits	9,8			; logo[62] @ 496
	.bits	32,8			; logo[63] @ 504
	.bits	32,8			; logo[64] @ 512
	.bits	32,8			; logo[65] @ 520
	.bits	32,8			; logo[66] @ 528
	.bits	32,8			; logo[67] @ 536
	.bits	32,8			; logo[68] @ 544
	.bits	67,8			; logo[69] @ 552
	.bits	68,8			; logo[70] @ 560
	.bits	65,8			; logo[71] @ 568
	.bits	67,8			; logo[72] @ 576
	.bits	32,8			; logo[73] @ 584
	.bits	66,8			; logo[74] @ 592
	.bits	97,8			; logo[75] @ 600
	.bits	110,8			; logo[76] @ 608
	.bits	103,8			; logo[77] @ 616
	.bits	97,8			; logo[78] @ 624
	.bits	108,8			; logo[79] @ 632
	.bits	111,8			; logo[80] @ 640
	.bits	114,8			; logo[81] @ 648
	.bits	101,8			; logo[82] @ 656
	.bits	32,8			; logo[83] @ 664
	.bits	32,8			; logo[84] @ 672
	.bits	32,8			; logo[85] @ 680
	.bits	32,8			; logo[86] @ 688
	.bits	9,8			; logo[87] @ 696
	.bits	9,8			; logo[88] @ 704
	.bits	32,8			; logo[89] @ 712
	.bits	42,8			; logo[90] @ 720
	.bits	10,8			; logo[91] @ 728
	.bits	13,8			; logo[92] @ 736
	.bits	42,8			; logo[93] @ 744
	.bits	32,8			; logo[94] @ 752
	.bits	32,8			; logo[95] @ 760
	.bits	32,8			; logo[96] @ 768
	.bits	32,8			; logo[97] @ 776
	.bits	32,8			; logo[98] @ 784
	.bits	32,8			; logo[99] @ 792
	.bits	32,8			; logo[100] @ 800
	.bits	32,8			; logo[101] @ 808
	.bits	32,8			; logo[102] @ 816
	.bits	32,8			; logo[103] @ 824
	.bits	32,8			; logo[104] @ 832
	.bits	32,8			; logo[105] @ 840
	.bits	67,8			; logo[106] @ 848
	.bits	45,8			; logo[107] @ 856
	.bits	77,8			; logo[108] @ 864
	.bits	111,8			; logo[109] @ 872
	.bits	116,8			; logo[110] @ 880
	.bits	101,8			; logo[111] @ 888
	.bits	32,8			; logo[112] @ 896
	.bits	68,8			; logo[113] @ 904
	.bits	105,8			; logo[114] @ 912
	.bits	97,8			; logo[115] @ 920
	.bits	103,8			; logo[116] @ 928
	.bits	110,8			; logo[117] @ 936
	.bits	111,8			; logo[118] @ 944
	.bits	115,8			; logo[119] @ 952
	.bits	116,8			; logo[120] @ 960
	.bits	105,8			; logo[121] @ 968
	.bits	99,8			; logo[122] @ 976
	.bits	32,8			; logo[123] @ 984
	.bits	65,8			; logo[124] @ 992
	.bits	112,8			; logo[125] @ 1000
	.bits	112,8			; logo[126] @ 1008
	.bits	112,8			; logo[127] @ 1016
	.bits	108,8			; logo[128] @ 1024
	.bits	105,8			; logo[129] @ 1032
	.bits	99,8			; logo[130] @ 1040
	.bits	97,8			; logo[131] @ 1048
	.bits	116,8			; logo[132] @ 1056
	.bits	105,8			; logo[133] @ 1064
	.bits	111,8			; logo[134] @ 1072
	.bits	110,8			; logo[135] @ 1080
	.bits	9,8			; logo[136] @ 1088
	.bits	9,8			; logo[137] @ 1096
	.bits	32,8			; logo[138] @ 1104
	.bits	42,8			; logo[139] @ 1112
	.bits	10,8			; logo[140] @ 1120
	.bits	13,8			; logo[141] @ 1128
	.bits	42,8			; logo[142] @ 1136
	.bits	32,8			; logo[143] @ 1144
	.bits	32,8			; logo[144] @ 1152
	.bits	32,8			; logo[145] @ 1160
	.bits	32,8			; logo[146] @ 1168
	.bits	32,8			; logo[147] @ 1176
	.bits	32,8			; logo[148] @ 1184
	.bits	32,8			; logo[149] @ 1192
	.bits	32,8			; logo[150] @ 1200
	.bits	32,8			; logo[151] @ 1208
	.bits	32,8			; logo[152] @ 1216
	.bits	32,8			; logo[153] @ 1224
	.bits	32,8			; logo[154] @ 1232
	.bits	9,8			; logo[155] @ 1240
	.bits	9,8			; logo[156] @ 1248
	.bits	9,8			; logo[157] @ 1256
	.bits	9,8			; logo[158] @ 1264
	.bits	9,8			; logo[159] @ 1272
	.bits	32,8			; logo[160] @ 1280
	.bits	32,8			; logo[161] @ 1288
	.bits	32,8			; logo[162] @ 1296
	.bits	32,8			; logo[163] @ 1304
	.bits	32,8			; logo[164] @ 1312
	.bits	32,8			; logo[165] @ 1320
	.bits	32,8			; logo[166] @ 1328
	.bits	32,8			; logo[167] @ 1336
	.bits	32,8			; logo[168] @ 1344
	.bits	42,8			; logo[169] @ 1352
	.bits	10,8			; logo[170] @ 1360
	.bits	13,8			; logo[171] @ 1368
	.bits	42,8			; logo[172] @ 1376
	.bits	32,8			; logo[173] @ 1384
	.bits	32,8			; logo[174] @ 1392
	.bits	32,8			; logo[175] @ 1400
	.bits	9,8			; logo[176] @ 1408
	.bits	9,8			; logo[177] @ 1416
	.bits	119,8			; logo[178] @ 1424
	.bits	115,8			; logo[179] @ 1432
	.bits	110,8			; logo[180] @ 1440
	.bits	100,8			; logo[181] @ 1448
	.bits	107,8			; logo[182] @ 1456
	.bits	45,8			; logo[183] @ 1464
	.bits	115,8			; logo[184] @ 1472
	.bits	117,8			; logo[185] @ 1480
	.bits	112,8			; logo[186] @ 1488
	.bits	112,8			; logo[187] @ 1496
	.bits	111,8			; logo[188] @ 1504
	.bits	114,8			; logo[189] @ 1512
	.bits	116,8			; logo[190] @ 1520
	.bits	64,8			; logo[191] @ 1528
	.bits	99,8			; logo[192] @ 1536
	.bits	100,8			; logo[193] @ 1544
	.bits	97,8			; logo[194] @ 1552
	.bits	99,8			; logo[195] @ 1560
	.bits	46,8			; logo[196] @ 1568
	.bits	105,8			; logo[197] @ 1576
	.bits	110,8			; logo[198] @ 1584
	.bits	9,8			; logo[199] @ 1592
	.bits	9,8			; logo[200] @ 1600
	.bits	9,8			; logo[201] @ 1608
	.bits	32,8			; logo[202] @ 1616
	.bits	42,8			; logo[203] @ 1624
	.bits	10,8			; logo[204] @ 1632
	.bits	13,8			; logo[205] @ 1640
	.bits	42,8			; logo[206] @ 1648
	.bits	9,8			; logo[207] @ 1656
	.bits	9,8			; logo[208] @ 1664
	.bits	9,8			; logo[209] @ 1672
	.bits	9,8			; logo[210] @ 1680
	.bits	9,8			; logo[211] @ 1688
	.bits	9,8			; logo[212] @ 1696
	.bits	9,8			; logo[213] @ 1704
	.bits	32,8			; logo[214] @ 1712
	.bits	42,8			; logo[215] @ 1720
	.bits	10,8			; logo[216] @ 1728
	.bits	13,8			; logo[217] @ 1736
	.bits	61,8			; logo[218] @ 1744
	.bits	61,8			; logo[219] @ 1752
	.bits	61,8			; logo[220] @ 1760
	.bits	61,8			; logo[221] @ 1768
	.bits	61,8			; logo[222] @ 1776
	.bits	61,8			; logo[223] @ 1784
	.bits	61,8			; logo[224] @ 1792
	.bits	61,8			; logo[225] @ 1800
	.bits	61,8			; logo[226] @ 1808
	.bits	61,8			; logo[227] @ 1816
	.bits	61,8			; logo[228] @ 1824
	.bits	61,8			; logo[229] @ 1832
	.bits	61,8			; logo[230] @ 1840
	.bits	61,8			; logo[231] @ 1848
	.bits	61,8			; logo[232] @ 1856
	.bits	61,8			; logo[233] @ 1864
	.bits	61,8			; logo[234] @ 1872
	.bits	61,8			; logo[235] @ 1880
	.bits	61,8			; logo[236] @ 1888
	.bits	61,8			; logo[237] @ 1896
	.bits	61,8			; logo[238] @ 1904
	.bits	61,8			; logo[239] @ 1912
	.bits	61,8			; logo[240] @ 1920
	.bits	61,8			; logo[241] @ 1928
	.bits	61,8			; logo[242] @ 1936
	.bits	61,8			; logo[243] @ 1944
	.bits	61,8			; logo[244] @ 1952
	.bits	61,8			; logo[245] @ 1960
	.bits	61,8			; logo[246] @ 1968
	.bits	61,8			; logo[247] @ 1976
	.bits	61,8			; logo[248] @ 1984
	.bits	61,8			; logo[249] @ 1992
	.bits	61,8			; logo[250] @ 2000
	.bits	61,8			; logo[251] @ 2008
	.bits	61,8			; logo[252] @ 2016
	.bits	61,8			; logo[253] @ 2024
	.bits	61,8			; logo[254] @ 2032
	.bits	61,8			; logo[255] @ 2040
	.bits	61,8			; logo[256] @ 2048
	.bits	61,8			; logo[257] @ 2056
	.bits	61,8			; logo[258] @ 2064
	.bits	61,8			; logo[259] @ 2072
	.bits	61,8			; logo[260] @ 2080
	.bits	61,8			; logo[261] @ 2088
	.bits	61,8			; logo[262] @ 2096
	.bits	61,8			; logo[263] @ 2104
	.bits	61,8			; logo[264] @ 2112
	.bits	61,8			; logo[265] @ 2120
	.bits	61,8			; logo[266] @ 2128
	.bits	61,8			; logo[267] @ 2136
	.bits	61,8			; logo[268] @ 2144
	.bits	61,8			; logo[269] @ 2152
	.bits	61,8			; logo[270] @ 2160
	.bits	61,8			; logo[271] @ 2168
	.bits	61,8			; logo[272] @ 2176
	.bits	61,8			; logo[273] @ 2184
	.bits	61,8			; logo[274] @ 2192
	.bits	32,8			; logo[275] @ 2200
	.bits	10,8			; logo[276] @ 2208
	.bits	13,8			; logo[277] @ 2216
	.bits	0,8			; logo[278] @ 2224

$C$DW$3	.dwtag  DW_TAG_variable, DW_AT_name("logo")
	.dwattr $C$DW$3, DW_AT_TI_symbol_name("logo")
	.dwattr $C$DW$3, DW_AT_location[DW_OP_addr logo]
	.dwattr $C$DW$3, DW_AT_type(*$C$DW$T$49)
	.dwattr $C$DW$3, DW_AT_external
	.dwattr $C$DW$3, DW_AT_decl_file("F:/Study/MTech/Project/PUFF DATA IIT-M(From Anthony)/PUF Gen_Support/ADC-DAC/lib/data.h")
	.dwattr $C$DW$3, DW_AT_decl_line(0x05)
	.dwattr $C$DW$3, DW_AT_decl_column(0x06)
	.global	new_line_char
	.sect	".data:new_line_char", RW
	.clink
	.align	2
	.elfsym	new_line_char,SYM_SIZE(4)
new_line_char:
	.bits	10,8			; new_line_char[0] @ 0
	.bits	13,8			; new_line_char[1] @ 8
	.bits	0,8			; new_line_char[2] @ 16

$C$DW$4	.dwtag  DW_TAG_variable, DW_AT_name("new_line_char")
	.dwattr $C$DW$4, DW_AT_TI_symbol_name("new_line_char")
	.dwattr $C$DW$4, DW_AT_location[DW_OP_addr new_line_char]
	.dwattr $C$DW$4, DW_AT_type(*$C$DW$T$50)
	.dwattr $C$DW$4, DW_AT_external
	.dwattr $C$DW$4, DW_AT_decl_file("F:/Study/MTech/Project/PUFF DATA IIT-M(From Anthony)/PUF Gen_Support/ADC-DAC/lib/data.h")
	.dwattr $C$DW$4, DW_AT_decl_line(0x0d)
	.dwattr $C$DW$4, DW_AT_decl_column(0x06)
	.global	EEPROM_data
	.sect	".data:EEPROM_data", RW
	.clink
	.align	2
	.elfsym	EEPROM_data,SYM_SIZE(42)
EEPROM_data:
	.bits	69,8			; EEPROM_data[0] @ 0
	.bits	69,8			; EEPROM_data[1] @ 8
	.bits	80,8			; EEPROM_data[2] @ 16
	.bits	82,8			; EEPROM_data[3] @ 24
	.bits	79,8			; EEPROM_data[4] @ 32
	.bits	77,8			; EEPROM_data[5] @ 40
	.bits	32,8			; EEPROM_data[6] @ 48
	.bits	73,8			; EEPROM_data[7] @ 56
	.bits	110,8			; EEPROM_data[8] @ 64
	.bits	116,8			; EEPROM_data[9] @ 72
	.bits	101,8			; EEPROM_data[10] @ 80
	.bits	114,8			; EEPROM_data[11] @ 88
	.bits	102,8			; EEPROM_data[12] @ 96
	.bits	97,8			; EEPROM_data[13] @ 104
	.bits	99,8			; EEPROM_data[14] @ 112
	.bits	101,8			; EEPROM_data[15] @ 120
	.bits	32,8			; EEPROM_data[16] @ 128
	.bits	32,8			; EEPROM_data[17] @ 136
	.bits	32,8			; EEPROM_data[18] @ 144
	.bits	32,8			; EEPROM_data[19] @ 152
	.bits	32,8			; EEPROM_data[20] @ 160
	.bits	32,8			; EEPROM_data[21] @ 168
	.bits	45,8			; EEPROM_data[22] @ 176
	.bits	45,8			; EEPROM_data[23] @ 184
	.bits	62,8			; EEPROM_data[24] @ 192
	.bits	32,8			; EEPROM_data[25] @ 200
	.bits	48,8			; EEPROM_data[26] @ 208
	.bits	120,8			; EEPROM_data[27] @ 216
	.bits	53,8			; EEPROM_data[28] @ 224
	.bits	51,8			; EEPROM_data[29] @ 232
	.bits	32,8			; EEPROM_data[30] @ 240
	.bits	32,8			; EEPROM_data[31] @ 248
	.bits	45,8			; EEPROM_data[32] @ 256
	.bits	45,8			; EEPROM_data[33] @ 264
	.bits	62,8			; EEPROM_data[34] @ 272
	.bits	32,8			; EEPROM_data[35] @ 280
	.bits	79,8			; EEPROM_data[36] @ 288
	.bits	75,8			; EEPROM_data[37] @ 296
	.bits	10,8			; EEPROM_data[38] @ 304
	.bits	13,8			; EEPROM_data[39] @ 312
	.bits	0,8			; EEPROM_data[40] @ 320

$C$DW$5	.dwtag  DW_TAG_variable, DW_AT_name("EEPROM_data")
	.dwattr $C$DW$5, DW_AT_TI_symbol_name("EEPROM_data")
	.dwattr $C$DW$5, DW_AT_location[DW_OP_addr EEPROM_data]
	.dwattr $C$DW$5, DW_AT_type(*$C$DW$T$51)
	.dwattr $C$DW$5, DW_AT_external
	.dwattr $C$DW$5, DW_AT_decl_file("F:/Study/MTech/Project/PUFF DATA IIT-M(From Anthony)/PUF Gen_Support/ADC-DAC/lib/data.h")
	.dwattr $C$DW$5, DW_AT_decl_line(0x0e)
	.dwattr $C$DW$5, DW_AT_decl_column(0x06)
	.global	error_EEPROM
	.sect	".data:error_EEPROM", RW
	.clink
	.align	2
	.elfsym	error_EEPROM,SYM_SIZE(36)
error_EEPROM:
	.bits	69,8			; error_EEPROM[0] @ 0
	.bits	69,8			; error_EEPROM[1] @ 8
	.bits	80,8			; error_EEPROM[2] @ 16
	.bits	82,8			; error_EEPROM[3] @ 24
	.bits	79,8			; error_EEPROM[4] @ 32
	.bits	77,8			; error_EEPROM[5] @ 40
	.bits	32,8			; error_EEPROM[6] @ 48
	.bits	73,8			; error_EEPROM[7] @ 56
	.bits	110,8			; error_EEPROM[8] @ 64
	.bits	116,8			; error_EEPROM[9] @ 72
	.bits	101,8			; error_EEPROM[10] @ 80
	.bits	114,8			; error_EEPROM[11] @ 88
	.bits	102,8			; error_EEPROM[12] @ 96
	.bits	97,8			; error_EEPROM[13] @ 104
	.bits	99,8			; error_EEPROM[14] @ 112
	.bits	101,8			; error_EEPROM[15] @ 120
	.bits	32,8			; error_EEPROM[16] @ 128
	.bits	32,8			; error_EEPROM[17] @ 136
	.bits	32,8			; error_EEPROM[18] @ 144
	.bits	32,8			; error_EEPROM[19] @ 152
	.bits	32,8			; error_EEPROM[20] @ 160
	.bits	32,8			; error_EEPROM[21] @ 168
	.bits	45,8			; error_EEPROM[22] @ 176
	.bits	45,8			; error_EEPROM[23] @ 184
	.bits	62,8			; error_EEPROM[24] @ 192
	.bits	32,8			; error_EEPROM[25] @ 200
	.bits	78,8			; error_EEPROM[26] @ 208
	.bits	111,8			; error_EEPROM[27] @ 216
	.bits	116,8			; error_EEPROM[28] @ 224
	.bits	32,8			; error_EEPROM[29] @ 232
	.bits	79,8			; error_EEPROM[30] @ 240
	.bits	75,8			; error_EEPROM[31] @ 248
	.bits	10,8			; error_EEPROM[32] @ 256
	.bits	13,8			; error_EEPROM[33] @ 264
	.bits	0,8			; error_EEPROM[34] @ 272

$C$DW$6	.dwtag  DW_TAG_variable, DW_AT_name("error_EEPROM")
	.dwattr $C$DW$6, DW_AT_TI_symbol_name("error_EEPROM")
	.dwattr $C$DW$6, DW_AT_location[DW_OP_addr error_EEPROM]
	.dwattr $C$DW$6, DW_AT_type(*$C$DW$T$52)
	.dwattr $C$DW$6, DW_AT_external
	.dwattr $C$DW$6, DW_AT_decl_file("F:/Study/MTech/Project/PUFF DATA IIT-M(From Anthony)/PUF Gen_Support/ADC-DAC/lib/data.h")
	.dwattr $C$DW$6, DW_AT_decl_line(0x0f)
	.dwattr $C$DW$6, DW_AT_decl_column(0x06)
	.global	flash_success
	.sect	".data:flash_success", RW
	.clink
	.align	2
	.elfsym	flash_success,SYM_SIZE(50)
flash_success:
	.bits	68,8			; flash_success[0] @ 0
	.bits	97,8			; flash_success[1] @ 8
	.bits	116,8			; flash_success[2] @ 16
	.bits	97,8			; flash_success[3] @ 24
	.bits	32,8			; flash_success[4] @ 32
	.bits	119,8			; flash_success[5] @ 40
	.bits	114,8			; flash_success[6] @ 48
	.bits	105,8			; flash_success[7] @ 56
	.bits	116,8			; flash_success[8] @ 64
	.bits	116,8			; flash_success[9] @ 72
	.bits	101,8			; flash_success[10] @ 80
	.bits	110,8			; flash_success[11] @ 88
	.bits	32,8			; flash_success[12] @ 96
	.bits	97,8			; flash_success[13] @ 104
	.bits	110,8			; flash_success[14] @ 112
	.bits	100,8			; flash_success[15] @ 120
	.bits	32,8			; flash_success[16] @ 128
	.bits	114,8			; flash_success[17] @ 136
	.bits	101,8			; flash_success[18] @ 144
	.bits	97,8			; flash_success[19] @ 152
	.bits	100,8			; flash_success[20] @ 160
	.bits	32,8			; flash_success[21] @ 168
	.bits	119,8			; flash_success[22] @ 176
	.bits	101,8			; flash_success[23] @ 184
	.bits	114,8			; flash_success[24] @ 192
	.bits	101,8			; flash_success[25] @ 200
	.bits	32,8			; flash_success[26] @ 208
	.bits	102,8			; flash_success[27] @ 216
	.bits	114,8			; flash_success[28] @ 224
	.bits	111,8			; flash_success[29] @ 232
	.bits	109,8			; flash_success[30] @ 240
	.bits	32,8			; flash_success[31] @ 248
	.bits	102,8			; flash_success[32] @ 256
	.bits	108,8			; flash_success[33] @ 264
	.bits	97,8			; flash_success[34] @ 272
	.bits	115,8			; flash_success[35] @ 280
	.bits	104,8			; flash_success[36] @ 288
	.bits	32,8			; flash_success[37] @ 296
	.bits	97,8			; flash_success[38] @ 304
	.bits	114,8			; flash_success[39] @ 312
	.bits	101,8			; flash_success[40] @ 320
	.bits	32,8			; flash_success[41] @ 328
	.bits	115,8			; flash_success[42] @ 336
	.bits	97,8			; flash_success[43] @ 344
	.bits	109,8			; flash_success[44] @ 352
	.bits	101,8			; flash_success[45] @ 360
	.bits	10,8			; flash_success[46] @ 368
	.bits	13,8			; flash_success[47] @ 376
	.bits	0,8			; flash_success[48] @ 384

$C$DW$7	.dwtag  DW_TAG_variable, DW_AT_name("flash_success")
	.dwattr $C$DW$7, DW_AT_TI_symbol_name("flash_success")
	.dwattr $C$DW$7, DW_AT_location[DW_OP_addr flash_success]
	.dwattr $C$DW$7, DW_AT_type(*$C$DW$T$53)
	.dwattr $C$DW$7, DW_AT_external
	.dwattr $C$DW$7, DW_AT_decl_file("F:/Study/MTech/Project/PUFF DATA IIT-M(From Anthony)/PUF Gen_Support/ADC-DAC/lib/data.h")
	.dwattr $C$DW$7, DW_AT_decl_line(0x10)
	.dwattr $C$DW$7, DW_AT_decl_column(0x06)
	.global	flash_failure
	.sect	".data:flash_failure", RW
	.clink
	.align	2
	.elfsym	flash_failure,SYM_SIZE(54)
flash_failure:
	.bits	68,8			; flash_failure[0] @ 0
	.bits	97,8			; flash_failure[1] @ 8
	.bits	116,8			; flash_failure[2] @ 16
	.bits	97,8			; flash_failure[3] @ 24
	.bits	32,8			; flash_failure[4] @ 32
	.bits	119,8			; flash_failure[5] @ 40
	.bits	114,8			; flash_failure[6] @ 48
	.bits	105,8			; flash_failure[7] @ 56
	.bits	116,8			; flash_failure[8] @ 64
	.bits	116,8			; flash_failure[9] @ 72
	.bits	101,8			; flash_failure[10] @ 80
	.bits	110,8			; flash_failure[11] @ 88
	.bits	32,8			; flash_failure[12] @ 96
	.bits	97,8			; flash_failure[13] @ 104
	.bits	110,8			; flash_failure[14] @ 112
	.bits	100,8			; flash_failure[15] @ 120
	.bits	32,8			; flash_failure[16] @ 128
	.bits	114,8			; flash_failure[17] @ 136
	.bits	101,8			; flash_failure[18] @ 144
	.bits	97,8			; flash_failure[19] @ 152
	.bits	100,8			; flash_failure[20] @ 160
	.bits	32,8			; flash_failure[21] @ 168
	.bits	119,8			; flash_failure[22] @ 176
	.bits	101,8			; flash_failure[23] @ 184
	.bits	114,8			; flash_failure[24] @ 192
	.bits	101,8			; flash_failure[25] @ 200
	.bits	32,8			; flash_failure[26] @ 208
	.bits	102,8			; flash_failure[27] @ 216
	.bits	114,8			; flash_failure[28] @ 224
	.bits	111,8			; flash_failure[29] @ 232
	.bits	109,8			; flash_failure[30] @ 240
	.bits	32,8			; flash_failure[31] @ 248
	.bits	102,8			; flash_failure[32] @ 256
	.bits	108,8			; flash_failure[33] @ 264
	.bits	97,8			; flash_failure[34] @ 272
	.bits	115,8			; flash_failure[35] @ 280
	.bits	104,8			; flash_failure[36] @ 288
	.bits	32,8			; flash_failure[37] @ 296
	.bits	97,8			; flash_failure[38] @ 304
	.bits	114,8			; flash_failure[39] @ 312
	.bits	101,8			; flash_failure[40] @ 320
	.bits	32,8			; flash_failure[41] @ 328
	.bits	100,8			; flash_failure[42] @ 336
	.bits	105,8			; flash_failure[43] @ 344
	.bits	102,8			; flash_failure[44] @ 352
	.bits	102,8			; flash_failure[45] @ 360
	.bits	101,8			; flash_failure[46] @ 368
	.bits	114,8			; flash_failure[47] @ 376
	.bits	101,8			; flash_failure[48] @ 384
	.bits	110,8			; flash_failure[49] @ 392
	.bits	116,8			; flash_failure[50] @ 400
	.bits	10,8			; flash_failure[51] @ 408
	.bits	13,8			; flash_failure[52] @ 416
	.bits	0,8			; flash_failure[53] @ 424

$C$DW$8	.dwtag  DW_TAG_variable, DW_AT_name("flash_failure")
	.dwattr $C$DW$8, DW_AT_TI_symbol_name("flash_failure")
	.dwattr $C$DW$8, DW_AT_location[DW_OP_addr flash_failure]
	.dwattr $C$DW$8, DW_AT_type(*$C$DW$T$54)
	.dwattr $C$DW$8, DW_AT_external
	.dwattr $C$DW$8, DW_AT_decl_file("F:/Study/MTech/Project/PUFF DATA IIT-M(From Anthony)/PUF Gen_Support/ADC-DAC/lib/data.h")
	.dwattr $C$DW$8, DW_AT_decl_line(0x11)
	.dwattr $C$DW$8, DW_AT_decl_column(0x06)
	.global	Fuel_Guage_data
	.sect	".data:Fuel_Guage_data", RW
	.clink
	.align	2
	.elfsym	Fuel_Guage_data,SYM_SIZE(62)
Fuel_Guage_data:
	.bits	70,8			; Fuel_Guage_data[0] @ 0
	.bits	117,8			; Fuel_Guage_data[1] @ 8
	.bits	101,8			; Fuel_Guage_data[2] @ 16
	.bits	108,8			; Fuel_Guage_data[3] @ 24
	.bits	32,8			; Fuel_Guage_data[4] @ 32
	.bits	71,8			; Fuel_Guage_data[5] @ 40
	.bits	117,8			; Fuel_Guage_data[6] @ 48
	.bits	97,8			; Fuel_Guage_data[7] @ 56
	.bits	103,8			; Fuel_Guage_data[8] @ 64
	.bits	101,8			; Fuel_Guage_data[9] @ 72
	.bits	32,8			; Fuel_Guage_data[10] @ 80
	.bits	76,8			; Fuel_Guage_data[11] @ 88
	.bits	84,8			; Fuel_Guage_data[12] @ 96
	.bits	67,8			; Fuel_Guage_data[13] @ 104
	.bits	50,8			; Fuel_Guage_data[14] @ 112
	.bits	57,8			; Fuel_Guage_data[15] @ 120
	.bits	52,8			; Fuel_Guage_data[16] @ 128
	.bits	50,8			; Fuel_Guage_data[17] @ 136
	.bits	32,8			; Fuel_Guage_data[18] @ 144
	.bits	119,8			; Fuel_Guage_data[19] @ 152
	.bits	105,8			; Fuel_Guage_data[20] @ 160
	.bits	116,8			; Fuel_Guage_data[21] @ 168
	.bits	104,8			; Fuel_Guage_data[22] @ 176
	.bits	32,8			; Fuel_Guage_data[23] @ 184
	.bits	83,8			; Fuel_Guage_data[24] @ 192
	.bits	108,8			; Fuel_Guage_data[25] @ 200
	.bits	97,8			; Fuel_Guage_data[26] @ 208
	.bits	118,8			; Fuel_Guage_data[27] @ 216
	.bits	101,8			; Fuel_Guage_data[28] @ 224
	.bits	32,8			; Fuel_Guage_data[29] @ 232
	.bits	65,8			; Fuel_Guage_data[30] @ 240
	.bits	100,8			; Fuel_Guage_data[31] @ 248
	.bits	100,8			; Fuel_Guage_data[32] @ 256
	.bits	114,8			; Fuel_Guage_data[33] @ 264
	.bits	101,8			; Fuel_Guage_data[34] @ 272
	.bits	115,8			; Fuel_Guage_data[35] @ 280
	.bits	115,8			; Fuel_Guage_data[36] @ 288
	.bits	32,8			; Fuel_Guage_data[37] @ 296
	.bits	48,8			; Fuel_Guage_data[38] @ 304
	.bits	120,8			; Fuel_Guage_data[39] @ 312
	.bits	67,8			; Fuel_Guage_data[40] @ 320
	.bits	56,8			; Fuel_Guage_data[41] @ 328
	.bits	32,8			; Fuel_Guage_data[42] @ 336
	.bits	105,8			; Fuel_Guage_data[43] @ 344
	.bits	115,8			; Fuel_Guage_data[44] @ 352
	.bits	32,8			; Fuel_Guage_data[45] @ 360
	.bits	87,8			; Fuel_Guage_data[46] @ 368
	.bits	111,8			; Fuel_Guage_data[47] @ 376
	.bits	114,8			; Fuel_Guage_data[48] @ 384
	.bits	75,8			; Fuel_Guage_data[49] @ 392
	.bits	105,8			; Fuel_Guage_data[50] @ 400
	.bits	110,8			; Fuel_Guage_data[51] @ 408
	.bits	103,8			; Fuel_Guage_data[52] @ 416
	.bits	32,8			; Fuel_Guage_data[53] @ 424
	.bits	79,8			; Fuel_Guage_data[54] @ 432
	.bits	75,8			; Fuel_Guage_data[55] @ 440
	.bits	33,8			; Fuel_Guage_data[56] @ 448
	.bits	33,8			; Fuel_Guage_data[57] @ 456
	.bits	10,8			; Fuel_Guage_data[58] @ 464
	.bits	13,8			; Fuel_Guage_data[59] @ 472
	.bits	0,8			; Fuel_Guage_data[60] @ 480

$C$DW$9	.dwtag  DW_TAG_variable, DW_AT_name("Fuel_Guage_data")
	.dwattr $C$DW$9, DW_AT_TI_symbol_name("Fuel_Guage_data")
	.dwattr $C$DW$9, DW_AT_location[DW_OP_addr Fuel_Guage_data]
	.dwattr $C$DW$9, DW_AT_type(*$C$DW$T$55)
	.dwattr $C$DW$9, DW_AT_external
	.dwattr $C$DW$9, DW_AT_decl_file("F:/Study/MTech/Project/PUFF DATA IIT-M(From Anthony)/PUF Gen_Support/ADC-DAC/lib/data.h")
	.dwattr $C$DW$9, DW_AT_decl_line(0x12)
	.dwattr $C$DW$9, DW_AT_decl_column(0x06)
	.global	error_fuel_guage
	.sect	".data:error_fuel_guage", RW
	.clink
	.align	2
	.elfsym	error_fuel_guage,SYM_SIZE(38)
error_fuel_guage:
	.bits	70,8			; error_fuel_guage[0] @ 0
	.bits	117,8			; error_fuel_guage[1] @ 8
	.bits	101,8			; error_fuel_guage[2] @ 16
	.bits	108,8			; error_fuel_guage[3] @ 24
	.bits	32,8			; error_fuel_guage[4] @ 32
	.bits	71,8			; error_fuel_guage[5] @ 40
	.bits	117,8			; error_fuel_guage[6] @ 48
	.bits	97,8			; error_fuel_guage[7] @ 56
	.bits	103,8			; error_fuel_guage[8] @ 64
	.bits	101,8			; error_fuel_guage[9] @ 72
	.bits	32,8			; error_fuel_guage[10] @ 80
	.bits	80,8			; error_fuel_guage[11] @ 88
	.bits	101,8			; error_fuel_guage[12] @ 96
	.bits	114,8			; error_fuel_guage[13] @ 104
	.bits	105,8			; error_fuel_guage[14] @ 112
	.bits	112,8			; error_fuel_guage[15] @ 120
	.bits	104,8			; error_fuel_guage[16] @ 128
	.bits	101,8			; error_fuel_guage[17] @ 136
	.bits	114,8			; error_fuel_guage[18] @ 144
	.bits	97,8			; error_fuel_guage[19] @ 152
	.bits	108,8			; error_fuel_guage[20] @ 160
	.bits	32,8			; error_fuel_guage[21] @ 168
	.bits	105,8			; error_fuel_guage[22] @ 176
	.bits	115,8			; error_fuel_guage[23] @ 184
	.bits	32,8			; error_fuel_guage[24] @ 192
	.bits	110,8			; error_fuel_guage[25] @ 200
	.bits	111,8			; error_fuel_guage[26] @ 208
	.bits	116,8			; error_fuel_guage[27] @ 216
	.bits	32,8			; error_fuel_guage[28] @ 224
	.bits	79,8			; error_fuel_guage[29] @ 232
	.bits	75,8			; error_fuel_guage[30] @ 240
	.bits	32,8			; error_fuel_guage[31] @ 248
	.bits	33,8			; error_fuel_guage[32] @ 256
	.bits	33,8			; error_fuel_guage[33] @ 264
	.bits	10,8			; error_fuel_guage[34] @ 272
	.bits	13,8			; error_fuel_guage[35] @ 280
	.bits	0,8			; error_fuel_guage[36] @ 288

$C$DW$10	.dwtag  DW_TAG_variable, DW_AT_name("error_fuel_guage")
	.dwattr $C$DW$10, DW_AT_TI_symbol_name("error_fuel_guage")
	.dwattr $C$DW$10, DW_AT_location[DW_OP_addr error_fuel_guage]
	.dwattr $C$DW$10, DW_AT_type(*$C$DW$T$56)
	.dwattr $C$DW$10, DW_AT_external
	.dwattr $C$DW$10, DW_AT_decl_file("F:/Study/MTech/Project/PUFF DATA IIT-M(From Anthony)/PUF Gen_Support/ADC-DAC/lib/data.h")
	.dwattr $C$DW$10, DW_AT_decl_line(0x13)
	.dwattr $C$DW$10, DW_AT_decl_column(0x06)
	.global	Amb_Light_sensor
	.sect	".data:Amb_Light_sensor", RW
	.clink
	.align	2
	.elfsym	Amb_Light_sensor,SYM_SIZE(38)
Amb_Light_sensor:
	.bits	76,8			; Amb_Light_sensor[0] @ 0
	.bits	105,8			; Amb_Light_sensor[1] @ 8
	.bits	103,8			; Amb_Light_sensor[2] @ 16
	.bits	104,8			; Amb_Light_sensor[3] @ 24
	.bits	116,8			; Amb_Light_sensor[4] @ 32
	.bits	32,8			; Amb_Light_sensor[5] @ 40
	.bits	83,8			; Amb_Light_sensor[6] @ 48
	.bits	101,8			; Amb_Light_sensor[7] @ 56
	.bits	110,8			; Amb_Light_sensor[8] @ 64
	.bits	115,8			; Amb_Light_sensor[9] @ 72
	.bits	111,8			; Amb_Light_sensor[10] @ 80
	.bits	114,8			; Amb_Light_sensor[11] @ 88
	.bits	32,8			; Amb_Light_sensor[12] @ 96
	.bits	32,8			; Amb_Light_sensor[13] @ 104
	.bits	32,8			; Amb_Light_sensor[14] @ 112
	.bits	32,8			; Amb_Light_sensor[15] @ 120
	.bits	32,8			; Amb_Light_sensor[16] @ 128
	.bits	32,8			; Amb_Light_sensor[17] @ 136
	.bits	32,8			; Amb_Light_sensor[18] @ 144
	.bits	45,8			; Amb_Light_sensor[19] @ 152
	.bits	45,8			; Amb_Light_sensor[20] @ 160
	.bits	62,8			; Amb_Light_sensor[21] @ 168
	.bits	32,8			; Amb_Light_sensor[22] @ 176
	.bits	48,8			; Amb_Light_sensor[23] @ 184
	.bits	120,8			; Amb_Light_sensor[24] @ 192
	.bits	50,8			; Amb_Light_sensor[25] @ 200
	.bits	57,8			; Amb_Light_sensor[26] @ 208
	.bits	32,8			; Amb_Light_sensor[27] @ 216
	.bits	45,8			; Amb_Light_sensor[28] @ 224
	.bits	45,8			; Amb_Light_sensor[29] @ 232
	.bits	62,8			; Amb_Light_sensor[30] @ 240
	.bits	32,8			; Amb_Light_sensor[31] @ 248
	.bits	79,8			; Amb_Light_sensor[32] @ 256
	.bits	75,8			; Amb_Light_sensor[33] @ 264
	.bits	10,8			; Amb_Light_sensor[34] @ 272
	.bits	13,8			; Amb_Light_sensor[35] @ 280
	.bits	0,8			; Amb_Light_sensor[36] @ 288

$C$DW$11	.dwtag  DW_TAG_variable, DW_AT_name("Amb_Light_sensor")
	.dwattr $C$DW$11, DW_AT_TI_symbol_name("Amb_Light_sensor")
	.dwattr $C$DW$11, DW_AT_location[DW_OP_addr Amb_Light_sensor]
	.dwattr $C$DW$11, DW_AT_type(*$C$DW$T$56)
	.dwattr $C$DW$11, DW_AT_external
	.dwattr $C$DW$11, DW_AT_decl_file("F:/Study/MTech/Project/PUFF DATA IIT-M(From Anthony)/PUF Gen_Support/ADC-DAC/lib/data.h")
	.dwattr $C$DW$11, DW_AT_decl_line(0x14)
	.dwattr $C$DW$11, DW_AT_decl_column(0x06)
	.global	error_light
	.sect	".data:error_light", RW
	.clink
	.align	2
	.elfsym	error_light,SYM_SIZE(32)
error_light:
	.bits	76,8			; error_light[0] @ 0
	.bits	105,8			; error_light[1] @ 8
	.bits	103,8			; error_light[2] @ 16
	.bits	104,8			; error_light[3] @ 24
	.bits	116,8			; error_light[4] @ 32
	.bits	32,8			; error_light[5] @ 40
	.bits	83,8			; error_light[6] @ 48
	.bits	101,8			; error_light[7] @ 56
	.bits	110,8			; error_light[8] @ 64
	.bits	115,8			; error_light[9] @ 72
	.bits	111,8			; error_light[10] @ 80
	.bits	114,8			; error_light[11] @ 88
	.bits	32,8			; error_light[12] @ 96
	.bits	32,8			; error_light[13] @ 104
	.bits	32,8			; error_light[14] @ 112
	.bits	32,8			; error_light[15] @ 120
	.bits	32,8			; error_light[16] @ 128
	.bits	32,8			; error_light[17] @ 136
	.bits	32,8			; error_light[18] @ 144
	.bits	45,8			; error_light[19] @ 152
	.bits	45,8			; error_light[20] @ 160
	.bits	62,8			; error_light[21] @ 168
	.bits	32,8			; error_light[22] @ 176
	.bits	78,8			; error_light[23] @ 184
	.bits	111,8			; error_light[24] @ 192
	.bits	116,8			; error_light[25] @ 200
	.bits	32,8			; error_light[26] @ 208
	.bits	79,8			; error_light[27] @ 216
	.bits	75,8			; error_light[28] @ 224
	.bits	10,8			; error_light[29] @ 232
	.bits	13,8			; error_light[30] @ 240
	.bits	0,8			; error_light[31] @ 248

$C$DW$12	.dwtag  DW_TAG_variable, DW_AT_name("error_light")
	.dwattr $C$DW$12, DW_AT_TI_symbol_name("error_light")
	.dwattr $C$DW$12, DW_AT_location[DW_OP_addr error_light]
	.dwattr $C$DW$12, DW_AT_type(*$C$DW$T$57)
	.dwattr $C$DW$12, DW_AT_external
	.dwattr $C$DW$12, DW_AT_decl_file("F:/Study/MTech/Project/PUFF DATA IIT-M(From Anthony)/PUF Gen_Support/ADC-DAC/lib/data.h")
	.dwattr $C$DW$12, DW_AT_decl_line(0x15)
	.dwattr $C$DW$12, DW_AT_decl_column(0x06)
	.global	temp_sensor
	.sect	".data:temp_sensor", RW
	.clink
	.align	2
	.elfsym	temp_sensor,SYM_SIZE(38)
temp_sensor:
	.bits	84,8			; temp_sensor[0] @ 0
	.bits	101,8			; temp_sensor[1] @ 8
	.bits	109,8			; temp_sensor[2] @ 16
	.bits	112,8			; temp_sensor[3] @ 24
	.bits	101,8			; temp_sensor[4] @ 32
	.bits	114,8			; temp_sensor[5] @ 40
	.bits	97,8			; temp_sensor[6] @ 48
	.bits	116,8			; temp_sensor[7] @ 56
	.bits	117,8			; temp_sensor[8] @ 64
	.bits	114,8			; temp_sensor[9] @ 72
	.bits	101,8			; temp_sensor[10] @ 80
	.bits	32,8			; temp_sensor[11] @ 88
	.bits	83,8			; temp_sensor[12] @ 96
	.bits	101,8			; temp_sensor[13] @ 104
	.bits	110,8			; temp_sensor[14] @ 112
	.bits	115,8			; temp_sensor[15] @ 120
	.bits	111,8			; temp_sensor[16] @ 128
	.bits	114,8			; temp_sensor[17] @ 136
	.bits	32,8			; temp_sensor[18] @ 144
	.bits	45,8			; temp_sensor[19] @ 152
	.bits	45,8			; temp_sensor[20] @ 160
	.bits	62,8			; temp_sensor[21] @ 168
	.bits	32,8			; temp_sensor[22] @ 176
	.bits	48,8			; temp_sensor[23] @ 184
	.bits	120,8			; temp_sensor[24] @ 192
	.bits	52,8			; temp_sensor[25] @ 200
	.bits	48,8			; temp_sensor[26] @ 208
	.bits	32,8			; temp_sensor[27] @ 216
	.bits	45,8			; temp_sensor[28] @ 224
	.bits	45,8			; temp_sensor[29] @ 232
	.bits	62,8			; temp_sensor[30] @ 240
	.bits	32,8			; temp_sensor[31] @ 248
	.bits	79,8			; temp_sensor[32] @ 256
	.bits	75,8			; temp_sensor[33] @ 264
	.bits	10,8			; temp_sensor[34] @ 272
	.bits	13,8			; temp_sensor[35] @ 280
	.bits	0,8			; temp_sensor[36] @ 288

$C$DW$13	.dwtag  DW_TAG_variable, DW_AT_name("temp_sensor")
	.dwattr $C$DW$13, DW_AT_TI_symbol_name("temp_sensor")
	.dwattr $C$DW$13, DW_AT_location[DW_OP_addr temp_sensor]
	.dwattr $C$DW$13, DW_AT_type(*$C$DW$T$56)
	.dwattr $C$DW$13, DW_AT_external
	.dwattr $C$DW$13, DW_AT_decl_file("F:/Study/MTech/Project/PUFF DATA IIT-M(From Anthony)/PUF Gen_Support/ADC-DAC/lib/data.h")
	.dwattr $C$DW$13, DW_AT_decl_line(0x16)
	.dwattr $C$DW$13, DW_AT_decl_column(0x06)
	.global	error_temp
	.sect	".data:error_temp", RW
	.clink
	.align	2
	.elfsym	error_temp,SYM_SIZE(32)
error_temp:
	.bits	84,8			; error_temp[0] @ 0
	.bits	101,8			; error_temp[1] @ 8
	.bits	109,8			; error_temp[2] @ 16
	.bits	112,8			; error_temp[3] @ 24
	.bits	101,8			; error_temp[4] @ 32
	.bits	114,8			; error_temp[5] @ 40
	.bits	97,8			; error_temp[6] @ 48
	.bits	116,8			; error_temp[7] @ 56
	.bits	117,8			; error_temp[8] @ 64
	.bits	114,8			; error_temp[9] @ 72
	.bits	101,8			; error_temp[10] @ 80
	.bits	32,8			; error_temp[11] @ 88
	.bits	83,8			; error_temp[12] @ 96
	.bits	101,8			; error_temp[13] @ 104
	.bits	110,8			; error_temp[14] @ 112
	.bits	115,8			; error_temp[15] @ 120
	.bits	111,8			; error_temp[16] @ 128
	.bits	114,8			; error_temp[17] @ 136
	.bits	32,8			; error_temp[18] @ 144
	.bits	45,8			; error_temp[19] @ 152
	.bits	45,8			; error_temp[20] @ 160
	.bits	62,8			; error_temp[21] @ 168
	.bits	32,8			; error_temp[22] @ 176
	.bits	78,8			; error_temp[23] @ 184
	.bits	111,8			; error_temp[24] @ 192
	.bits	116,8			; error_temp[25] @ 200
	.bits	32,8			; error_temp[26] @ 208
	.bits	79,8			; error_temp[27] @ 216
	.bits	75,8			; error_temp[28] @ 224
	.bits	10,8			; error_temp[29] @ 232
	.bits	13,8			; error_temp[30] @ 240
	.bits	0,8			; error_temp[31] @ 248

$C$DW$14	.dwtag  DW_TAG_variable, DW_AT_name("error_temp")
	.dwattr $C$DW$14, DW_AT_TI_symbol_name("error_temp")
	.dwattr $C$DW$14, DW_AT_location[DW_OP_addr error_temp]
	.dwattr $C$DW$14, DW_AT_type(*$C$DW$T$57)
	.dwattr $C$DW$14, DW_AT_external
	.dwattr $C$DW$14, DW_AT_decl_file("F:/Study/MTech/Project/PUFF DATA IIT-M(From Anthony)/PUF Gen_Support/ADC-DAC/lib/data.h")
	.dwattr $C$DW$14, DW_AT_decl_line(0x17)
	.dwattr $C$DW$14, DW_AT_decl_column(0x06)
	.global	Proximity_sensor
	.sect	".data:Proximity_sensor", RW
	.clink
	.align	2
	.elfsym	Proximity_sensor,SYM_SIZE(38)
Proximity_sensor:
	.bits	80,8			; Proximity_sensor[0] @ 0
	.bits	114,8			; Proximity_sensor[1] @ 8
	.bits	111,8			; Proximity_sensor[2] @ 16
	.bits	120,8			; Proximity_sensor[3] @ 24
	.bits	105,8			; Proximity_sensor[4] @ 32
	.bits	109,8			; Proximity_sensor[5] @ 40
	.bits	105,8			; Proximity_sensor[6] @ 48
	.bits	116,8			; Proximity_sensor[7] @ 56
	.bits	121,8			; Proximity_sensor[8] @ 64
	.bits	32,8			; Proximity_sensor[9] @ 72
	.bits	83,8			; Proximity_sensor[10] @ 80
	.bits	101,8			; Proximity_sensor[11] @ 88
	.bits	110,8			; Proximity_sensor[12] @ 96
	.bits	115,8			; Proximity_sensor[13] @ 104
	.bits	111,8			; Proximity_sensor[14] @ 112
	.bits	114,8			; Proximity_sensor[15] @ 120
	.bits	32,8			; Proximity_sensor[16] @ 128
	.bits	32,8			; Proximity_sensor[17] @ 136
	.bits	32,8			; Proximity_sensor[18] @ 144
	.bits	45,8			; Proximity_sensor[19] @ 152
	.bits	45,8			; Proximity_sensor[20] @ 160
	.bits	62,8			; Proximity_sensor[21] @ 168
	.bits	32,8			; Proximity_sensor[22] @ 176
	.bits	48,8			; Proximity_sensor[23] @ 184
	.bits	120,8			; Proximity_sensor[24] @ 192
	.bits	51,8			; Proximity_sensor[25] @ 200
	.bits	57,8			; Proximity_sensor[26] @ 208
	.bits	32,8			; Proximity_sensor[27] @ 216
	.bits	45,8			; Proximity_sensor[28] @ 224
	.bits	45,8			; Proximity_sensor[29] @ 232
	.bits	62,8			; Proximity_sensor[30] @ 240
	.bits	32,8			; Proximity_sensor[31] @ 248
	.bits	79,8			; Proximity_sensor[32] @ 256
	.bits	75,8			; Proximity_sensor[33] @ 264
	.bits	10,8			; Proximity_sensor[34] @ 272
	.bits	13,8			; Proximity_sensor[35] @ 280
	.bits	0,8			; Proximity_sensor[36] @ 288

$C$DW$15	.dwtag  DW_TAG_variable, DW_AT_name("Proximity_sensor")
	.dwattr $C$DW$15, DW_AT_TI_symbol_name("Proximity_sensor")
	.dwattr $C$DW$15, DW_AT_location[DW_OP_addr Proximity_sensor]
	.dwattr $C$DW$15, DW_AT_type(*$C$DW$T$56)
	.dwattr $C$DW$15, DW_AT_external
	.dwattr $C$DW$15, DW_AT_decl_file("F:/Study/MTech/Project/PUFF DATA IIT-M(From Anthony)/PUF Gen_Support/ADC-DAC/lib/data.h")
	.dwattr $C$DW$15, DW_AT_decl_line(0x18)
	.dwattr $C$DW$15, DW_AT_decl_column(0x06)
	.global	error_proximity
	.sect	".data:error_proximity", RW
	.clink
	.align	2
	.elfsym	error_proximity,SYM_SIZE(32)
error_proximity:
	.bits	80,8			; error_proximity[0] @ 0
	.bits	114,8			; error_proximity[1] @ 8
	.bits	111,8			; error_proximity[2] @ 16
	.bits	120,8			; error_proximity[3] @ 24
	.bits	105,8			; error_proximity[4] @ 32
	.bits	109,8			; error_proximity[5] @ 40
	.bits	105,8			; error_proximity[6] @ 48
	.bits	116,8			; error_proximity[7] @ 56
	.bits	121,8			; error_proximity[8] @ 64
	.bits	32,8			; error_proximity[9] @ 72
	.bits	83,8			; error_proximity[10] @ 80
	.bits	101,8			; error_proximity[11] @ 88
	.bits	110,8			; error_proximity[12] @ 96
	.bits	115,8			; error_proximity[13] @ 104
	.bits	111,8			; error_proximity[14] @ 112
	.bits	114,8			; error_proximity[15] @ 120
	.bits	32,8			; error_proximity[16] @ 128
	.bits	32,8			; error_proximity[17] @ 136
	.bits	32,8			; error_proximity[18] @ 144
	.bits	45,8			; error_proximity[19] @ 152
	.bits	45,8			; error_proximity[20] @ 160
	.bits	62,8			; error_proximity[21] @ 168
	.bits	32,8			; error_proximity[22] @ 176
	.bits	78,8			; error_proximity[23] @ 184
	.bits	111,8			; error_proximity[24] @ 192
	.bits	116,8			; error_proximity[25] @ 200
	.bits	32,8			; error_proximity[26] @ 208
	.bits	79,8			; error_proximity[27] @ 216
	.bits	75,8			; error_proximity[28] @ 224
	.bits	10,8			; error_proximity[29] @ 232
	.bits	13,8			; error_proximity[30] @ 240
	.bits	0,8			; error_proximity[31] @ 248

$C$DW$16	.dwtag  DW_TAG_variable, DW_AT_name("error_proximity")
	.dwattr $C$DW$16, DW_AT_TI_symbol_name("error_proximity")
	.dwattr $C$DW$16, DW_AT_location[DW_OP_addr error_proximity]
	.dwattr $C$DW$16, DW_AT_type(*$C$DW$T$57)
	.dwattr $C$DW$16, DW_AT_external
	.dwattr $C$DW$16, DW_AT_decl_file("F:/Study/MTech/Project/PUFF DATA IIT-M(From Anthony)/PUF Gen_Support/ADC-DAC/lib/data.h")
	.dwattr $C$DW$16, DW_AT_decl_line(0x19)
	.dwattr $C$DW$16, DW_AT_decl_column(0x06)
	.global	Baro_Pressure_sensor
	.sect	".data:Baro_Pressure_sensor", RW
	.clink
	.align	2
	.elfsym	Baro_Pressure_sensor,SYM_SIZE(38)
Baro_Pressure_sensor:
	.bits	80,8			; Baro_Pressure_sensor[0] @ 0
	.bits	114,8			; Baro_Pressure_sensor[1] @ 8
	.bits	101,8			; Baro_Pressure_sensor[2] @ 16
	.bits	115,8			; Baro_Pressure_sensor[3] @ 24
	.bits	115,8			; Baro_Pressure_sensor[4] @ 32
	.bits	117,8			; Baro_Pressure_sensor[5] @ 40
	.bits	114,8			; Baro_Pressure_sensor[6] @ 48
	.bits	101,8			; Baro_Pressure_sensor[7] @ 56
	.bits	32,8			; Baro_Pressure_sensor[8] @ 64
	.bits	83,8			; Baro_Pressure_sensor[9] @ 72
	.bits	101,8			; Baro_Pressure_sensor[10] @ 80
	.bits	110,8			; Baro_Pressure_sensor[11] @ 88
	.bits	115,8			; Baro_Pressure_sensor[12] @ 96
	.bits	111,8			; Baro_Pressure_sensor[13] @ 104
	.bits	114,8			; Baro_Pressure_sensor[14] @ 112
	.bits	32,8			; Baro_Pressure_sensor[15] @ 120
	.bits	32,8			; Baro_Pressure_sensor[16] @ 128
	.bits	32,8			; Baro_Pressure_sensor[17] @ 136
	.bits	32,8			; Baro_Pressure_sensor[18] @ 144
	.bits	45,8			; Baro_Pressure_sensor[19] @ 152
	.bits	45,8			; Baro_Pressure_sensor[20] @ 160
	.bits	62,8			; Baro_Pressure_sensor[21] @ 168
	.bits	32,8			; Baro_Pressure_sensor[22] @ 176
	.bits	48,8			; Baro_Pressure_sensor[23] @ 184
	.bits	120,8			; Baro_Pressure_sensor[24] @ 192
	.bits	55,8			; Baro_Pressure_sensor[25] @ 200
	.bits	55,8			; Baro_Pressure_sensor[26] @ 208
	.bits	32,8			; Baro_Pressure_sensor[27] @ 216
	.bits	45,8			; Baro_Pressure_sensor[28] @ 224
	.bits	45,8			; Baro_Pressure_sensor[29] @ 232
	.bits	62,8			; Baro_Pressure_sensor[30] @ 240
	.bits	32,8			; Baro_Pressure_sensor[31] @ 248
	.bits	79,8			; Baro_Pressure_sensor[32] @ 256
	.bits	75,8			; Baro_Pressure_sensor[33] @ 264
	.bits	10,8			; Baro_Pressure_sensor[34] @ 272
	.bits	13,8			; Baro_Pressure_sensor[35] @ 280
	.bits	0,8			; Baro_Pressure_sensor[36] @ 288

$C$DW$17	.dwtag  DW_TAG_variable, DW_AT_name("Baro_Pressure_sensor")
	.dwattr $C$DW$17, DW_AT_TI_symbol_name("Baro_Pressure_sensor")
	.dwattr $C$DW$17, DW_AT_location[DW_OP_addr Baro_Pressure_sensor]
	.dwattr $C$DW$17, DW_AT_type(*$C$DW$T$56)
	.dwattr $C$DW$17, DW_AT_external
	.dwattr $C$DW$17, DW_AT_decl_file("F:/Study/MTech/Project/PUFF DATA IIT-M(From Anthony)/PUF Gen_Support/ADC-DAC/lib/data.h")
	.dwattr $C$DW$17, DW_AT_decl_line(0x1a)
	.dwattr $C$DW$17, DW_AT_decl_column(0x06)
	.global	error_pressure
	.sect	".data:error_pressure", RW
	.clink
	.align	2
	.elfsym	error_pressure,SYM_SIZE(32)
error_pressure:
	.bits	80,8			; error_pressure[0] @ 0
	.bits	114,8			; error_pressure[1] @ 8
	.bits	101,8			; error_pressure[2] @ 16
	.bits	115,8			; error_pressure[3] @ 24
	.bits	115,8			; error_pressure[4] @ 32
	.bits	117,8			; error_pressure[5] @ 40
	.bits	114,8			; error_pressure[6] @ 48
	.bits	101,8			; error_pressure[7] @ 56
	.bits	32,8			; error_pressure[8] @ 64
	.bits	83,8			; error_pressure[9] @ 72
	.bits	101,8			; error_pressure[10] @ 80
	.bits	110,8			; error_pressure[11] @ 88
	.bits	115,8			; error_pressure[12] @ 96
	.bits	111,8			; error_pressure[13] @ 104
	.bits	114,8			; error_pressure[14] @ 112
	.bits	32,8			; error_pressure[15] @ 120
	.bits	32,8			; error_pressure[16] @ 128
	.bits	32,8			; error_pressure[17] @ 136
	.bits	32,8			; error_pressure[18] @ 144
	.bits	45,8			; error_pressure[19] @ 152
	.bits	45,8			; error_pressure[20] @ 160
	.bits	62,8			; error_pressure[21] @ 168
	.bits	32,8			; error_pressure[22] @ 176
	.bits	78,8			; error_pressure[23] @ 184
	.bits	111,8			; error_pressure[24] @ 192
	.bits	116,8			; error_pressure[25] @ 200
	.bits	32,8			; error_pressure[26] @ 208
	.bits	79,8			; error_pressure[27] @ 216
	.bits	75,8			; error_pressure[28] @ 224
	.bits	10,8			; error_pressure[29] @ 232
	.bits	13,8			; error_pressure[30] @ 240
	.bits	0,8			; error_pressure[31] @ 248

$C$DW$18	.dwtag  DW_TAG_variable, DW_AT_name("error_pressure")
	.dwattr $C$DW$18, DW_AT_TI_symbol_name("error_pressure")
	.dwattr $C$DW$18, DW_AT_location[DW_OP_addr error_pressure]
	.dwattr $C$DW$18, DW_AT_type(*$C$DW$T$57)
	.dwattr $C$DW$18, DW_AT_external
	.dwattr $C$DW$18, DW_AT_decl_file("F:/Study/MTech/Project/PUFF DATA IIT-M(From Anthony)/PUF Gen_Support/ADC-DAC/lib/data.h")
	.dwattr $C$DW$18, DW_AT_decl_line(0x1b)
	.dwattr $C$DW$18, DW_AT_decl_column(0x06)
	.global	ADC_error
	.sect	".data:ADC_error", RW
	.clink
	.align	2
	.elfsym	ADC_error,SYM_SIZE(36)
ADC_error:
	.bits	65,8			; ADC_error[0] @ 0
	.bits	68,8			; ADC_error[1] @ 8
	.bits	67,8			; ADC_error[2] @ 16
	.bits	32,8			; ADC_error[3] @ 24
	.bits	73,8			; ADC_error[4] @ 32
	.bits	110,8			; ADC_error[5] @ 40
	.bits	116,8			; ADC_error[6] @ 48
	.bits	101,8			; ADC_error[7] @ 56
	.bits	114,8			; ADC_error[8] @ 64
	.bits	102,8			; ADC_error[9] @ 72
	.bits	97,8			; ADC_error[10] @ 80
	.bits	99,8			; ADC_error[11] @ 88
	.bits	101,8			; ADC_error[12] @ 96
	.bits	32,8			; ADC_error[13] @ 104
	.bits	32,8			; ADC_error[14] @ 112
	.bits	32,8			; ADC_error[15] @ 120
	.bits	32,8			; ADC_error[16] @ 128
	.bits	32,8			; ADC_error[17] @ 136
	.bits	32,8			; ADC_error[18] @ 144
	.bits	32,8			; ADC_error[19] @ 152
	.bits	32,8			; ADC_error[20] @ 160
	.bits	32,8			; ADC_error[21] @ 168
	.bits	45,8			; ADC_error[22] @ 176
	.bits	45,8			; ADC_error[23] @ 184
	.bits	62,8			; ADC_error[24] @ 192
	.bits	32,8			; ADC_error[25] @ 200
	.bits	78,8			; ADC_error[26] @ 208
	.bits	111,8			; ADC_error[27] @ 216
	.bits	116,8			; ADC_error[28] @ 224
	.bits	32,8			; ADC_error[29] @ 232
	.bits	79,8			; ADC_error[30] @ 240
	.bits	75,8			; ADC_error[31] @ 248
	.bits	10,8			; ADC_error[32] @ 256
	.bits	13,8			; ADC_error[33] @ 264
	.bits	0,8			; ADC_error[34] @ 272

$C$DW$19	.dwtag  DW_TAG_variable, DW_AT_name("ADC_error")
	.dwattr $C$DW$19, DW_AT_TI_symbol_name("ADC_error")
	.dwattr $C$DW$19, DW_AT_location[DW_OP_addr ADC_error]
	.dwattr $C$DW$19, DW_AT_type(*$C$DW$T$52)
	.dwattr $C$DW$19, DW_AT_external
	.dwattr $C$DW$19, DW_AT_decl_file("F:/Study/MTech/Project/PUFF DATA IIT-M(From Anthony)/PUF Gen_Support/ADC-DAC/lib/data.h")
	.dwattr $C$DW$19, DW_AT_decl_line(0x1c)
	.dwattr $C$DW$19, DW_AT_decl_column(0x06)
	.global	ADC_data
	.sect	".data:ADC_data", RW
	.clink
	.align	2
	.elfsym	ADC_data,SYM_SIZE(40)
ADC_data:
	.bits	65,8			; ADC_data[0] @ 0
	.bits	68,8			; ADC_data[1] @ 8
	.bits	67,8			; ADC_data[2] @ 16
	.bits	32,8			; ADC_data[3] @ 24
	.bits	73,8			; ADC_data[4] @ 32
	.bits	110,8			; ADC_data[5] @ 40
	.bits	116,8			; ADC_data[6] @ 48
	.bits	101,8			; ADC_data[7] @ 56
	.bits	114,8			; ADC_data[8] @ 64
	.bits	102,8			; ADC_data[9] @ 72
	.bits	97,8			; ADC_data[10] @ 80
	.bits	99,8			; ADC_data[11] @ 88
	.bits	101,8			; ADC_data[12] @ 96
	.bits	32,8			; ADC_data[13] @ 104
	.bits	32,8			; ADC_data[14] @ 112
	.bits	32,8			; ADC_data[15] @ 120
	.bits	32,8			; ADC_data[16] @ 128
	.bits	32,8			; ADC_data[17] @ 136
	.bits	32,8			; ADC_data[18] @ 144
	.bits	32,8			; ADC_data[19] @ 152
	.bits	32,8			; ADC_data[20] @ 160
	.bits	32,8			; ADC_data[21] @ 168
	.bits	45,8			; ADC_data[22] @ 176
	.bits	45,8			; ADC_data[23] @ 184
	.bits	62,8			; ADC_data[24] @ 192
	.bits	32,8			; ADC_data[25] @ 200
	.bits	48,8			; ADC_data[26] @ 208
	.bits	120,8			; ADC_data[27] @ 216
	.bits	51,8			; ADC_data[28] @ 224
	.bits	53,8			; ADC_data[29] @ 232
	.bits	32,8			; ADC_data[30] @ 240
	.bits	45,8			; ADC_data[31] @ 248
	.bits	45,8			; ADC_data[32] @ 256
	.bits	62,8			; ADC_data[33] @ 264
	.bits	32,8			; ADC_data[34] @ 272
	.bits	79,8			; ADC_data[35] @ 280
	.bits	75,8			; ADC_data[36] @ 288
	.bits	10,8			; ADC_data[37] @ 296
	.bits	13,8			; ADC_data[38] @ 304
	.bits	0,8			; ADC_data[39] @ 312

$C$DW$20	.dwtag  DW_TAG_variable, DW_AT_name("ADC_data")
	.dwattr $C$DW$20, DW_AT_TI_symbol_name("ADC_data")
	.dwattr $C$DW$20, DW_AT_location[DW_OP_addr ADC_data]
	.dwattr $C$DW$20, DW_AT_type(*$C$DW$T$58)
	.dwattr $C$DW$20, DW_AT_external
	.dwattr $C$DW$20, DW_AT_decl_file("F:/Study/MTech/Project/PUFF DATA IIT-M(From Anthony)/PUF Gen_Support/ADC-DAC/lib/data.h")
	.dwattr $C$DW$20, DW_AT_decl_line(0x1d)
	.dwattr $C$DW$20, DW_AT_decl_column(0x06)
	.global	io_expander
	.sect	".data:io_expander", RW
	.clink
	.align	2
	.elfsym	io_expander,SYM_SIZE(40)
io_expander:
	.bits	73,8			; io_expander[0] @ 0
	.bits	79,8			; io_expander[1] @ 8
	.bits	32,8			; io_expander[2] @ 16
	.bits	69,8			; io_expander[3] @ 24
	.bits	120,8			; io_expander[4] @ 32
	.bits	112,8			; io_expander[5] @ 40
	.bits	97,8			; io_expander[6] @ 48
	.bits	110,8			; io_expander[7] @ 56
	.bits	100,8			; io_expander[8] @ 64
	.bits	101,8			; io_expander[9] @ 72
	.bits	114,8			; io_expander[10] @ 80
	.bits	32,8			; io_expander[11] @ 88
	.bits	73,8			; io_expander[12] @ 96
	.bits	110,8			; io_expander[13] @ 104
	.bits	116,8			; io_expander[14] @ 112
	.bits	101,8			; io_expander[15] @ 120
	.bits	114,8			; io_expander[16] @ 128
	.bits	102,8			; io_expander[17] @ 136
	.bits	97,8			; io_expander[18] @ 144
	.bits	99,8			; io_expander[19] @ 152
	.bits	101,8			; io_expander[20] @ 160
	.bits	32,8			; io_expander[21] @ 168
	.bits	45,8			; io_expander[22] @ 176
	.bits	45,8			; io_expander[23] @ 184
	.bits	62,8			; io_expander[24] @ 192
	.bits	32,8			; io_expander[25] @ 200
	.bits	48,8			; io_expander[26] @ 208
	.bits	120,8			; io_expander[27] @ 216
	.bits	51,8			; io_expander[28] @ 224
	.bits	67,8			; io_expander[29] @ 232
	.bits	32,8			; io_expander[30] @ 240
	.bits	45,8			; io_expander[31] @ 248
	.bits	45,8			; io_expander[32] @ 256
	.bits	62,8			; io_expander[33] @ 264
	.bits	32,8			; io_expander[34] @ 272
	.bits	79,8			; io_expander[35] @ 280
	.bits	75,8			; io_expander[36] @ 288
	.bits	10,8			; io_expander[37] @ 296
	.bits	13,8			; io_expander[38] @ 304
	.bits	0,8			; io_expander[39] @ 312

$C$DW$21	.dwtag  DW_TAG_variable, DW_AT_name("io_expander")
	.dwattr $C$DW$21, DW_AT_TI_symbol_name("io_expander")
	.dwattr $C$DW$21, DW_AT_location[DW_OP_addr io_expander]
	.dwattr $C$DW$21, DW_AT_type(*$C$DW$T$58)
	.dwattr $C$DW$21, DW_AT_external
	.dwattr $C$DW$21, DW_AT_decl_file("F:/Study/MTech/Project/PUFF DATA IIT-M(From Anthony)/PUF Gen_Support/ADC-DAC/lib/data.h")
	.dwattr $C$DW$21, DW_AT_decl_line(0x1e)
	.dwattr $C$DW$21, DW_AT_decl_column(0x06)
	.global	error_io_expander
	.sect	".data:error_io_expander", RW
	.clink
	.align	2
	.elfsym	error_io_expander,SYM_SIZE(36)
error_io_expander:
	.bits	73,8			; error_io_expander[0] @ 0
	.bits	79,8			; error_io_expander[1] @ 8
	.bits	32,8			; error_io_expander[2] @ 16
	.bits	69,8			; error_io_expander[3] @ 24
	.bits	120,8			; error_io_expander[4] @ 32
	.bits	112,8			; error_io_expander[5] @ 40
	.bits	97,8			; error_io_expander[6] @ 48
	.bits	110,8			; error_io_expander[7] @ 56
	.bits	100,8			; error_io_expander[8] @ 64
	.bits	101,8			; error_io_expander[9] @ 72
	.bits	114,8			; error_io_expander[10] @ 80
	.bits	32,8			; error_io_expander[11] @ 88
	.bits	73,8			; error_io_expander[12] @ 96
	.bits	110,8			; error_io_expander[13] @ 104
	.bits	116,8			; error_io_expander[14] @ 112
	.bits	101,8			; error_io_expander[15] @ 120
	.bits	114,8			; error_io_expander[16] @ 128
	.bits	102,8			; error_io_expander[17] @ 136
	.bits	97,8			; error_io_expander[18] @ 144
	.bits	99,8			; error_io_expander[19] @ 152
	.bits	101,8			; error_io_expander[20] @ 160
	.bits	32,8			; error_io_expander[21] @ 168
	.bits	45,8			; error_io_expander[22] @ 176
	.bits	45,8			; error_io_expander[23] @ 184
	.bits	62,8			; error_io_expander[24] @ 192
	.bits	32,8			; error_io_expander[25] @ 200
	.bits	78,8			; error_io_expander[26] @ 208
	.bits	111,8			; error_io_expander[27] @ 216
	.bits	116,8			; error_io_expander[28] @ 224
	.bits	32,8			; error_io_expander[29] @ 232
	.bits	79,8			; error_io_expander[30] @ 240
	.bits	75,8			; error_io_expander[31] @ 248
	.bits	10,8			; error_io_expander[32] @ 256
	.bits	13,8			; error_io_expander[33] @ 264
	.bits	0,8			; error_io_expander[34] @ 272

$C$DW$22	.dwtag  DW_TAG_variable, DW_AT_name("error_io_expander")
	.dwattr $C$DW$22, DW_AT_TI_symbol_name("error_io_expander")
	.dwattr $C$DW$22, DW_AT_location[DW_OP_addr error_io_expander]
	.dwattr $C$DW$22, DW_AT_type(*$C$DW$T$52)
	.dwattr $C$DW$22, DW_AT_external
	.dwattr $C$DW$22, DW_AT_decl_file("F:/Study/MTech/Project/PUFF DATA IIT-M(From Anthony)/PUF Gen_Support/ADC-DAC/lib/data.h")
	.dwattr $C$DW$22, DW_AT_decl_line(0x1f)
	.dwattr $C$DW$22, DW_AT_decl_column(0x06)
	.global	RTC_data
	.sect	".data:RTC_data", RW
	.clink
	.align	2
	.elfsym	RTC_data,SYM_SIZE(60)
RTC_data:
	.bits	82,8			; RTC_data[0] @ 0
	.bits	84,8			; RTC_data[1] @ 8
	.bits	67,8			; RTC_data[2] @ 16
	.bits	32,8			; RTC_data[3] @ 24
	.bits	73,8			; RTC_data[4] @ 32
	.bits	110,8			; RTC_data[5] @ 40
	.bits	116,8			; RTC_data[6] @ 48
	.bits	101,8			; RTC_data[7] @ 56
	.bits	114,8			; RTC_data[8] @ 64
	.bits	102,8			; RTC_data[9] @ 72
	.bits	97,8			; RTC_data[10] @ 80
	.bits	99,8			; RTC_data[11] @ 88
	.bits	101,8			; RTC_data[12] @ 96
	.bits	32,8			; RTC_data[13] @ 104
	.bits	32,8			; RTC_data[14] @ 112
	.bits	32,8			; RTC_data[15] @ 120
	.bits	32,8			; RTC_data[16] @ 128
	.bits	32,8			; RTC_data[17] @ 136
	.bits	32,8			; RTC_data[18] @ 144
	.bits	32,8			; RTC_data[19] @ 152
	.bits	32,8			; RTC_data[20] @ 160
	.bits	32,8			; RTC_data[21] @ 168
	.bits	45,8			; RTC_data[22] @ 176
	.bits	45,8			; RTC_data[23] @ 184
	.bits	62,8			; RTC_data[24] @ 192
	.bits	32,8			; RTC_data[25] @ 200
	.bits	48,8			; RTC_data[26] @ 208
	.bits	120,8			; RTC_data[27] @ 216
	.bits	54,8			; RTC_data[28] @ 224
	.bits	56,8			; RTC_data[29] @ 232
	.bits	32,8			; RTC_data[30] @ 240
	.bits	45,8			; RTC_data[31] @ 248
	.bits	45,8			; RTC_data[32] @ 256
	.bits	62,8			; RTC_data[33] @ 264
	.bits	32,8			; RTC_data[34] @ 272
	.bits	79,8			; RTC_data[35] @ 280
	.bits	75,8			; RTC_data[36] @ 288
	.bits	10,8			; RTC_data[37] @ 296
	.bits	13,8			; RTC_data[38] @ 304
	.bits	82,8			; RTC_data[39] @ 312
	.bits	101,8			; RTC_data[40] @ 320
	.bits	108,8			; RTC_data[41] @ 328
	.bits	97,8			; RTC_data[42] @ 336
	.bits	121,8			; RTC_data[43] @ 344
	.bits	32,8			; RTC_data[44] @ 352
	.bits	105,8			; RTC_data[45] @ 360
	.bits	115,8			; RTC_data[46] @ 368
	.bits	32,8			; RTC_data[47] @ 376
	.bits	99,8			; RTC_data[48] @ 384
	.bits	111,8			; RTC_data[49] @ 392
	.bits	110,8			; RTC_data[50] @ 400
	.bits	110,8			; RTC_data[51] @ 408
	.bits	101,8			; RTC_data[52] @ 416
	.bits	99,8			; RTC_data[53] @ 424
	.bits	116,8			; RTC_data[54] @ 432
	.bits	101,8			; RTC_data[55] @ 440
	.bits	100,8			; RTC_data[56] @ 448
	.bits	10,8			; RTC_data[57] @ 456
	.bits	13,8			; RTC_data[58] @ 464
	.bits	0,8			; RTC_data[59] @ 472

$C$DW$23	.dwtag  DW_TAG_variable, DW_AT_name("RTC_data")
	.dwattr $C$DW$23, DW_AT_TI_symbol_name("RTC_data")
	.dwattr $C$DW$23, DW_AT_location[DW_OP_addr RTC_data]
	.dwattr $C$DW$23, DW_AT_type(*$C$DW$T$59)
	.dwattr $C$DW$23, DW_AT_external
	.dwattr $C$DW$23, DW_AT_decl_file("F:/Study/MTech/Project/PUFF DATA IIT-M(From Anthony)/PUF Gen_Support/ADC-DAC/lib/data.h")
	.dwattr $C$DW$23, DW_AT_decl_line(0x20)
	.dwattr $C$DW$23, DW_AT_decl_column(0x06)
	.global	error_RTC
	.sect	".data:error_RTC", RW
	.clink
	.align	2
	.elfsym	error_RTC,SYM_SIZE(68)
error_RTC:
	.bits	82,8			; error_RTC[0] @ 0
	.bits	84,8			; error_RTC[1] @ 8
	.bits	67,8			; error_RTC[2] @ 16
	.bits	32,8			; error_RTC[3] @ 24
	.bits	73,8			; error_RTC[4] @ 32
	.bits	110,8			; error_RTC[5] @ 40
	.bits	116,8			; error_RTC[6] @ 48
	.bits	101,8			; error_RTC[7] @ 56
	.bits	114,8			; error_RTC[8] @ 64
	.bits	102,8			; error_RTC[9] @ 72
	.bits	97,8			; error_RTC[10] @ 80
	.bits	99,8			; error_RTC[11] @ 88
	.bits	101,8			; error_RTC[12] @ 96
	.bits	32,8			; error_RTC[13] @ 104
	.bits	32,8			; error_RTC[14] @ 112
	.bits	32,8			; error_RTC[15] @ 120
	.bits	32,8			; error_RTC[16] @ 128
	.bits	32,8			; error_RTC[17] @ 136
	.bits	32,8			; error_RTC[18] @ 144
	.bits	32,8			; error_RTC[19] @ 152
	.bits	32,8			; error_RTC[20] @ 160
	.bits	32,8			; error_RTC[21] @ 168
	.bits	45,8			; error_RTC[22] @ 176
	.bits	45,8			; error_RTC[23] @ 184
	.bits	62,8			; error_RTC[24] @ 192
	.bits	32,8			; error_RTC[25] @ 200
	.bits	78,8			; error_RTC[26] @ 208
	.bits	111,8			; error_RTC[27] @ 216
	.bits	116,8			; error_RTC[28] @ 224
	.bits	32,8			; error_RTC[29] @ 232
	.bits	79,8			; error_RTC[30] @ 240
	.bits	75,8			; error_RTC[31] @ 248
	.bits	10,8			; error_RTC[32] @ 256
	.bits	13,8			; error_RTC[33] @ 264
	.bits	82,8			; error_RTC[34] @ 272
	.bits	101,8			; error_RTC[35] @ 280
	.bits	108,8			; error_RTC[36] @ 288
	.bits	97,8			; error_RTC[37] @ 296
	.bits	121,8			; error_RTC[38] @ 304
	.bits	115,8			; error_RTC[39] @ 312
	.bits	32,8			; error_RTC[40] @ 320
	.bits	97,8			; error_RTC[41] @ 328
	.bits	114,8			; error_RTC[42] @ 336
	.bits	101,8			; error_RTC[43] @ 344
	.bits	32,8			; error_RTC[44] @ 352
	.bits	97,8			; error_RTC[45] @ 360
	.bits	108,8			; error_RTC[46] @ 368
	.bits	115,8			; error_RTC[47] @ 376
	.bits	111,8			; error_RTC[48] @ 384
	.bits	32,8			; error_RTC[49] @ 392
	.bits	110,8			; error_RTC[50] @ 400
	.bits	111,8			; error_RTC[51] @ 408
	.bits	116,8			; error_RTC[52] @ 416
	.bits	32,8			; error_RTC[53] @ 424
	.bits	99,8			; error_RTC[54] @ 432
	.bits	111,8			; error_RTC[55] @ 440
	.bits	110,8			; error_RTC[56] @ 448
	.bits	110,8			; error_RTC[57] @ 456
	.bits	99,8			; error_RTC[58] @ 464
	.bits	116,8			; error_RTC[59] @ 472
	.bits	101,8			; error_RTC[60] @ 480
	.bits	100,8			; error_RTC[61] @ 488
	.bits	32,8			; error_RTC[62] @ 496
	.bits	33,8			; error_RTC[63] @ 504
	.bits	10,8			; error_RTC[64] @ 512
	.bits	13,8			; error_RTC[65] @ 520
	.bits	0,8			; error_RTC[66] @ 528

$C$DW$24	.dwtag  DW_TAG_variable, DW_AT_name("error_RTC")
	.dwattr $C$DW$24, DW_AT_TI_symbol_name("error_RTC")
	.dwattr $C$DW$24, DW_AT_location[DW_OP_addr error_RTC]
	.dwattr $C$DW$24, DW_AT_type(*$C$DW$T$60)
	.dwattr $C$DW$24, DW_AT_external
	.dwattr $C$DW$24, DW_AT_decl_file("F:/Study/MTech/Project/PUFF DATA IIT-M(From Anthony)/PUF Gen_Support/ADC-DAC/lib/data.h")
	.dwattr $C$DW$24, DW_AT_decl_line(0x21)
	.dwattr $C$DW$24, DW_AT_decl_column(0x06)
	.global	svs_data
	.sect	".data:svs_data", RW
	.clink
	.align	2
	.elfsym	svs_data,SYM_SIZE(48)
svs_data:
	.bits	83,8			; svs_data[0] @ 0
	.bits	86,8			; svs_data[1] @ 8
	.bits	83,8			; svs_data[2] @ 16
	.bits	32,8			; svs_data[3] @ 24
	.bits	105,8			; svs_data[4] @ 32
	.bits	115,8			; svs_data[5] @ 40
	.bits	32,8			; svs_data[6] @ 48
	.bits	111,8			; svs_data[7] @ 56
	.bits	110,8			; svs_data[8] @ 64
	.bits	32,8			; svs_data[9] @ 72
	.bits	97,8			; svs_data[10] @ 80
	.bits	110,8			; svs_data[11] @ 88
	.bits	100,8			; svs_data[12] @ 96
	.bits	32,8			; svs_data[13] @ 104
	.bits	83,8			; svs_data[14] @ 112
	.bits	101,8			; svs_data[15] @ 120
	.bits	116,8			; svs_data[16] @ 128
	.bits	116,8			; svs_data[17] @ 136
	.bits	105,8			; svs_data[18] @ 144
	.bits	110,8			; svs_data[19] @ 152
	.bits	103,8			; svs_data[20] @ 160
	.bits	32,8			; svs_data[21] @ 168
	.bits	84,8			; svs_data[22] @ 176
	.bits	104,8			; svs_data[23] @ 184
	.bits	114,8			; svs_data[24] @ 192
	.bits	101,8			; svs_data[25] @ 200
	.bits	115,8			; svs_data[26] @ 208
	.bits	104,8			; svs_data[27] @ 216
	.bits	111,8			; svs_data[28] @ 224
	.bits	108,8			; svs_data[29] @ 232
	.bits	100,8			; svs_data[30] @ 240
	.bits	32,8			; svs_data[31] @ 248
	.bits	86,8			; svs_data[32] @ 256
	.bits	111,8			; svs_data[33] @ 264
	.bits	108,8			; svs_data[34] @ 272
	.bits	116,8			; svs_data[35] @ 280
	.bits	97,8			; svs_data[36] @ 288
	.bits	103,8			; svs_data[37] @ 296
	.bits	101,8			; svs_data[38] @ 304
	.bits	32,8			; svs_data[39] @ 312
	.bits	46,8			; svs_data[40] @ 320
	.bits	46,8			; svs_data[41] @ 328
	.bits	46,8			; svs_data[42] @ 336
	.bits	46,8			; svs_data[43] @ 344
	.bits	46,8			; svs_data[44] @ 352
	.bits	10,8			; svs_data[45] @ 360
	.bits	13,8			; svs_data[46] @ 368
	.bits	0,8			; svs_data[47] @ 376

$C$DW$25	.dwtag  DW_TAG_variable, DW_AT_name("svs_data")
	.dwattr $C$DW$25, DW_AT_TI_symbol_name("svs_data")
	.dwattr $C$DW$25, DW_AT_location[DW_OP_addr svs_data]
	.dwattr $C$DW$25, DW_AT_type(*$C$DW$T$61)
	.dwattr $C$DW$25, DW_AT_external
	.dwattr $C$DW$25, DW_AT_decl_file("F:/Study/MTech/Project/PUFF DATA IIT-M(From Anthony)/PUF Gen_Support/ADC-DAC/lib/data.h")
	.dwattr $C$DW$25, DW_AT_decl_line(0x22)
	.dwattr $C$DW$25, DW_AT_decl_column(0x06)
	.global	svs_voltage
	.sect	".data:svs_voltage", RW
	.clink
	.align	2
	.elfsym	svs_voltage,SYM_SIZE(60)
svs_voltage:
	.bits	$C$FSL1,32		; svs_voltage[0] @ 0
	.bits	$C$FSL2,32		; svs_voltage[1] @ 32
	.bits	$C$FSL3,32		; svs_voltage[2] @ 64
	.bits	$C$FSL4,32		; svs_voltage[3] @ 96
	.bits	$C$FSL5,32		; svs_voltage[4] @ 128
	.bits	$C$FSL6,32		; svs_voltage[5] @ 160
	.bits	$C$FSL7,32		; svs_voltage[6] @ 192
	.bits	$C$FSL8,32		; svs_voltage[7] @ 224
	.bits	$C$FSL9,32		; svs_voltage[8] @ 256
	.bits	$C$FSL10,32		; svs_voltage[9] @ 288
	.bits	$C$FSL11,32		; svs_voltage[10] @ 320
	.bits	$C$FSL12,32		; svs_voltage[11] @ 352
	.bits	$C$FSL13,32		; svs_voltage[12] @ 384
	.bits	$C$FSL14,32		; svs_voltage[13] @ 416
	.bits	$C$FSL15,32		; svs_voltage[14] @ 448

$C$DW$26	.dwtag  DW_TAG_variable, DW_AT_name("svs_voltage")
	.dwattr $C$DW$26, DW_AT_TI_symbol_name("svs_voltage")
	.dwattr $C$DW$26, DW_AT_location[DW_OP_addr svs_voltage]
	.dwattr $C$DW$26, DW_AT_type(*$C$DW$T$47)
	.dwattr $C$DW$26, DW_AT_external
	.dwattr $C$DW$26, DW_AT_decl_file("F:/Study/MTech/Project/PUFF DATA IIT-M(From Anthony)/PUF Gen_Support/ADC-DAC/lib/data.h")
	.dwattr $C$DW$26, DW_AT_decl_line(0x23)
	.dwattr $C$DW$26, DW_AT_decl_column(0x07)
;	D:\Program Files\ccsv6\tools\compiler\ti-cgt-msp430_4.4.3\bin\opt430.exe C:\\Users\\user\\AppData\\Local\\Temp\\291122 C:\\Users\\user\\AppData\\Local\\Temp\\291124 
	.sect	".text:print_string"
	.clink
	.global	print_string

$C$DW$27	.dwtag  DW_TAG_subprogram, DW_AT_name("print_string")
	.dwattr $C$DW$27, DW_AT_low_pc(print_string)
	.dwattr $C$DW$27, DW_AT_high_pc(0x00)
	.dwattr $C$DW$27, DW_AT_TI_symbol_name("print_string")
	.dwattr $C$DW$27, DW_AT_external
	.dwattr $C$DW$27, DW_AT_TI_begin_file("../print_result.c")
	.dwattr $C$DW$27, DW_AT_TI_begin_line(0x05)
	.dwattr $C$DW$27, DW_AT_TI_begin_column(0x06)
	.dwattr $C$DW$27, DW_AT_decl_file("../print_result.c")
	.dwattr $C$DW$27, DW_AT_decl_line(0x05)
	.dwattr $C$DW$27, DW_AT_decl_column(0x06)
	.dwattr $C$DW$27, DW_AT_TI_max_frame_size(0x08)
	.dwpsn	file "../print_result.c",line 5,column 32,is_stmt,address print_string,isa 0

	.dwfde $C$DW$CIE, print_string
$C$DW$28	.dwtag  DW_TAG_formal_parameter, DW_AT_name("string")
	.dwattr $C$DW$28, DW_AT_TI_symbol_name("string")
	.dwattr $C$DW$28, DW_AT_type(*$C$DW$T$22)
	.dwattr $C$DW$28, DW_AT_location[DW_OP_reg12]

;*****************************************************************************
;* FUNCTION NAME: print_string                                               *
;*                                                                           *
;*   Regs Modified     : SP,SR,r10,r11,r12,r13,r14,r15                       *
;*   Regs Used         : SP,SR,r10,r11,r12,r13,r14,r15                       *
;*   Local Frame Size  : 0 Args + 0 Auto + 4 Save = 4 byte                   *
;*****************************************************************************
print_string:
;* --------------------------------------------------------------------------*
	.dwcfi	cfa_offset, 4
	.dwcfi	save_reg_to_mem, 16, -4
        PUSHM.A   #1,r10                ; [] 
	.dwcfi	save_reg_to_mem, 10, -8
	.dwcfi	cfa_offset, 8
;* r10   assigned to string
$C$DW$29	.dwtag  DW_TAG_variable, DW_AT_name("string")
	.dwattr $C$DW$29, DW_AT_TI_symbol_name("string")
	.dwattr $C$DW$29, DW_AT_type(*$C$DW$T$22)
	.dwattr $C$DW$29, DW_AT_location[DW_OP_reg10]
        MOVA      r12,r10               ; [] |5| 
;* --------------------------------------------------------------------------*
;*   BEGIN LOOP $C$L1
;*
;*   Loop source line                : 7
;*   Loop closing brace source line  : 9
;*   Known Minimum Trip Count        : 1
;*   Known Maximum Trip Count        : 4294967295
;*   Known Max Trip Count Factor     : 1
;* --------------------------------------------------------------------------*
$C$L1:    
	.dwpsn	file "../print_result.c",line 8,column 3,is_stmt,isa 0
        MOV.B     @r10,r12              ; [] |8| 
$C$DW$30	.dwtag  DW_TAG_TI_branch
	.dwattr $C$DW$30, DW_AT_low_pc(0x00)
	.dwattr $C$DW$30, DW_AT_name("transmit_115200")
	.dwattr $C$DW$30, DW_AT_TI_call
        CALLA     #transmit_115200      ; [] |8| 
                                          ; [] |8| 
	.dwpsn	file "../print_result.c",line 9,column 9,is_stmt,isa 0
        MOV.B     @r10+,r15             ; [] |9| 
        TST.W     r15                   ; [] |9| 
        JNE       $C$L1                 ; [] |9| 
                                          ; [] |9| 
;* --------------------------------------------------------------------------*
	.dwpsn	file "../print_result.c",line 10,column 1,is_stmt,isa 0
        POPM.A    #1,r10                ; [] 
	.dwcfi	restore_reg, 10
	.dwcfi	cfa_offset, 4
$C$DW$31	.dwtag  DW_TAG_TI_branch
	.dwattr $C$DW$31, DW_AT_low_pc(0x00)
	.dwattr $C$DW$31, DW_AT_TI_return
        RETA      ; [] 
        ; [] 
	.dwattr $C$DW$27, DW_AT_TI_end_file("../print_result.c")
	.dwattr $C$DW$27, DW_AT_TI_end_line(0x0a)
	.dwattr $C$DW$27, DW_AT_TI_end_column(0x01)
	.dwendentry
	.dwendtag $C$DW$27

	.sect	".text:print_result"
	.clink
	.global	print_result

$C$DW$32	.dwtag  DW_TAG_subprogram, DW_AT_name("print_result")
	.dwattr $C$DW$32, DW_AT_low_pc(print_result)
	.dwattr $C$DW$32, DW_AT_high_pc(0x00)
	.dwattr $C$DW$32, DW_AT_TI_symbol_name("print_result")
	.dwattr $C$DW$32, DW_AT_external
	.dwattr $C$DW$32, DW_AT_TI_begin_file("../print_result.c")
	.dwattr $C$DW$32, DW_AT_TI_begin_line(0x0c)
	.dwattr $C$DW$32, DW_AT_TI_begin_column(0x06)
	.dwattr $C$DW$32, DW_AT_decl_file("../print_result.c")
	.dwattr $C$DW$32, DW_AT_decl_line(0x0c)
	.dwattr $C$DW$32, DW_AT_decl_column(0x06)
	.dwattr $C$DW$32, DW_AT_TI_max_frame_size(0x08)
	.dwpsn	file "../print_result.c",line 12,column 50,is_stmt,address print_result,isa 0

	.dwfde $C$DW$CIE, print_result
$C$DW$33	.dwtag  DW_TAG_formal_parameter, DW_AT_name("type")
	.dwattr $C$DW$33, DW_AT_TI_symbol_name("type")
	.dwattr $C$DW$33, DW_AT_type(*$C$DW$T$10)
	.dwattr $C$DW$33, DW_AT_location[DW_OP_reg12]
$C$DW$34	.dwtag  DW_TAG_formal_parameter, DW_AT_name("result")
	.dwattr $C$DW$34, DW_AT_TI_symbol_name("result")
	.dwattr $C$DW$34, DW_AT_type(*$C$DW$T$6)
	.dwattr $C$DW$34, DW_AT_location[DW_OP_reg13]

;*****************************************************************************
;* FUNCTION NAME: print_result                                               *
;*                                                                           *
;*   Regs Modified     : SP,SR,r10,r11,r12,r13,r14,r15                       *
;*   Regs Used         : SP,SR,r10,r11,r12,r13,r14,r15                       *
;*   Local Frame Size  : 0 Args + 0 Auto + 4 Save = 4 byte                   *
;*****************************************************************************
print_result:
;* --------------------------------------------------------------------------*
	.dwcfi	cfa_offset, 4
	.dwcfi	save_reg_to_mem, 16, -4
        PUSHM.A   #1,r10                ; [] 
	.dwcfi	save_reg_to_mem, 10, -8
	.dwcfi	cfa_offset, 8
;* r10   assigned to result
$C$DW$35	.dwtag  DW_TAG_variable, DW_AT_name("result")
	.dwattr $C$DW$35, DW_AT_TI_symbol_name("result")
	.dwattr $C$DW$35, DW_AT_type(*$C$DW$T$6)
	.dwattr $C$DW$35, DW_AT_location[DW_OP_reg10]
        MOVA      r13,r10               ; [] |12| 
	.dwpsn	file "../print_result.c",line 14,column 2,is_stmt,isa 0
        SUB.W     #1,r12                ; [] |14| 
        CMP.W     #11,r12               ; [] |14| 
        JHS       $C$L23                ; [] |14| 
                                          ; [] |14| 
;* --------------------------------------------------------------------------*
        RLAM.A    #4,r12                ; [] |14| 
        RRAM.A    #2,r12                ; [] |14| 
        MOVX.A    $C$SW1+0(r12),PC      ; [] |14| 
                                          ; [] |14| 
$C$SW1:	.long	$C$L20	; 1
	.long	$C$L22	; 2
	.long	$C$L18	; 3
	.long	$C$L16	; 4
	.long	$C$L14	; 5
	.long	$C$L12	; 6
	.long	$C$L10	; 7
	.long	$C$L8	; 8
	.long	$C$L6	; 9
	.long	$C$L4	; 10
	.long	$C$L2	; 11
;* --------------------------------------------------------------------------*
$C$L2:    
	.dwpsn	file "../print_result.c",line 75,column 4,is_stmt,isa 0
        TST.B     r10                   ; [] |75| 
        JNE       $C$L3                 ; [] |75| 
                                          ; [] |75| 
;* --------------------------------------------------------------------------*
	.dwpsn	file "../print_result.c",line 78,column 4,is_stmt,isa 0
        MOVX.A    #RTC_data+0,r12       ; [] |78| 
$C$DW$36	.dwtag  DW_TAG_TI_branch
	.dwattr $C$DW$36, DW_AT_low_pc(0x00)
	.dwattr $C$DW$36, DW_AT_name("print_string")
	.dwattr $C$DW$36, DW_AT_TI_call
        CALLA     #print_string         ; [] |78| 
                                          ; [] |78| 
        JMP       $C$L23                ; [] |78| 
                                          ; [] |78| 
;* --------------------------------------------------------------------------*
$C$L3:    
	.dwpsn	file "../print_result.c",line 76,column 4,is_stmt,isa 0
        MOVX.A    #error_RTC+0,r12      ; [] |76| 
$C$DW$37	.dwtag  DW_TAG_TI_branch
	.dwattr $C$DW$37, DW_AT_low_pc(0x00)
	.dwattr $C$DW$37, DW_AT_name("print_string")
	.dwattr $C$DW$37, DW_AT_TI_call
        CALLA     #print_string         ; [] |76| 
                                          ; [] |76| 
        JMP       $C$L23                ; [] |76| 
                                          ; [] |76| 
;* --------------------------------------------------------------------------*
$C$L4:    
	.dwpsn	file "../print_result.c",line 69,column 4,is_stmt,isa 0
        TST.B     r10                   ; [] |69| 
        JNE       $C$L5                 ; [] |69| 
                                          ; [] |69| 
;* --------------------------------------------------------------------------*
	.dwpsn	file "../print_result.c",line 72,column 4,is_stmt,isa 0
        MOVX.A    #io_expander+0,r12    ; [] |72| 
$C$DW$38	.dwtag  DW_TAG_TI_branch
	.dwattr $C$DW$38, DW_AT_low_pc(0x00)
	.dwattr $C$DW$38, DW_AT_name("print_string")
	.dwattr $C$DW$38, DW_AT_TI_call
        CALLA     #print_string         ; [] |72| 
                                          ; [] |72| 
        JMP       $C$L23                ; [] |72| 
                                          ; [] |72| 
;* --------------------------------------------------------------------------*
$C$L5:    
	.dwpsn	file "../print_result.c",line 70,column 4,is_stmt,isa 0
        MOVX.A    #error_io_expander+0,r12 ; [] |70| 
$C$DW$39	.dwtag  DW_TAG_TI_branch
	.dwattr $C$DW$39, DW_AT_low_pc(0x00)
	.dwattr $C$DW$39, DW_AT_name("print_string")
	.dwattr $C$DW$39, DW_AT_TI_call
        CALLA     #print_string         ; [] |70| 
                                          ; [] |70| 
        JMP       $C$L23                ; [] |70| 
                                          ; [] |70| 
;* --------------------------------------------------------------------------*
$C$L6:    
	.dwpsn	file "../print_result.c",line 63,column 4,is_stmt,isa 0
        TST.B     r10                   ; [] |63| 
        JNE       $C$L7                 ; [] |63| 
                                          ; [] |63| 
;* --------------------------------------------------------------------------*
	.dwpsn	file "../print_result.c",line 66,column 4,is_stmt,isa 0
        MOVX.A    #ADC_data+0,r12       ; [] |66| 
$C$DW$40	.dwtag  DW_TAG_TI_branch
	.dwattr $C$DW$40, DW_AT_low_pc(0x00)
	.dwattr $C$DW$40, DW_AT_name("print_string")
	.dwattr $C$DW$40, DW_AT_TI_call
        CALLA     #print_string         ; [] |66| 
                                          ; [] |66| 
        JMP       $C$L23                ; [] |66| 
                                          ; [] |66| 
;* --------------------------------------------------------------------------*
$C$L7:    
	.dwpsn	file "../print_result.c",line 64,column 4,is_stmt,isa 0
        MOVX.A    #ADC_error+0,r12      ; [] |64| 
$C$DW$41	.dwtag  DW_TAG_TI_branch
	.dwattr $C$DW$41, DW_AT_low_pc(0x00)
	.dwattr $C$DW$41, DW_AT_name("print_string")
	.dwattr $C$DW$41, DW_AT_TI_call
        CALLA     #print_string         ; [] |64| 
                                          ; [] |64| 
        JMP       $C$L23                ; [] |64| 
                                          ; [] |64| 
;* --------------------------------------------------------------------------*
$C$L8:    
	.dwpsn	file "../print_result.c",line 57,column 4,is_stmt,isa 0
        TST.B     r10                   ; [] |57| 
        JNE       $C$L9                 ; [] |57| 
                                          ; [] |57| 
;* --------------------------------------------------------------------------*
	.dwpsn	file "../print_result.c",line 60,column 4,is_stmt,isa 0
        MOVX.A    #Baro_Pressure_sensor+0,r12 ; [] |60| 
$C$DW$42	.dwtag  DW_TAG_TI_branch
	.dwattr $C$DW$42, DW_AT_low_pc(0x00)
	.dwattr $C$DW$42, DW_AT_name("print_string")
	.dwattr $C$DW$42, DW_AT_TI_call
        CALLA     #print_string         ; [] |60| 
                                          ; [] |60| 
        JMP       $C$L23                ; [] |60| 
                                          ; [] |60| 
;* --------------------------------------------------------------------------*
$C$L9:    
	.dwpsn	file "../print_result.c",line 58,column 4,is_stmt,isa 0
        MOVX.A    #error_pressure+0,r12 ; [] |58| 
$C$DW$43	.dwtag  DW_TAG_TI_branch
	.dwattr $C$DW$43, DW_AT_low_pc(0x00)
	.dwattr $C$DW$43, DW_AT_name("print_string")
	.dwattr $C$DW$43, DW_AT_TI_call
        CALLA     #print_string         ; [] |58| 
                                          ; [] |58| 
        JMP       $C$L23                ; [] |58| 
                                          ; [] |58| 
;* --------------------------------------------------------------------------*
$C$L10:    
	.dwpsn	file "../print_result.c",line 51,column 4,is_stmt,isa 0
        TST.B     r10                   ; [] |51| 
        JNE       $C$L11                ; [] |51| 
                                          ; [] |51| 
;* --------------------------------------------------------------------------*
	.dwpsn	file "../print_result.c",line 54,column 4,is_stmt,isa 0
        MOVX.A    #Proximity_sensor+0,r12 ; [] |54| 
$C$DW$44	.dwtag  DW_TAG_TI_branch
	.dwattr $C$DW$44, DW_AT_low_pc(0x00)
	.dwattr $C$DW$44, DW_AT_name("print_string")
	.dwattr $C$DW$44, DW_AT_TI_call
        CALLA     #print_string         ; [] |54| 
                                          ; [] |54| 
        JMP       $C$L23                ; [] |54| 
                                          ; [] |54| 
;* --------------------------------------------------------------------------*
$C$L11:    
	.dwpsn	file "../print_result.c",line 52,column 4,is_stmt,isa 0
        MOVX.A    #error_proximity+0,r12 ; [] |52| 
$C$DW$45	.dwtag  DW_TAG_TI_branch
	.dwattr $C$DW$45, DW_AT_low_pc(0x00)
	.dwattr $C$DW$45, DW_AT_name("print_string")
	.dwattr $C$DW$45, DW_AT_TI_call
        CALLA     #print_string         ; [] |52| 
                                          ; [] |52| 
        JMP       $C$L23                ; [] |52| 
                                          ; [] |52| 
;* --------------------------------------------------------------------------*
$C$L12:    
	.dwpsn	file "../print_result.c",line 45,column 4,is_stmt,isa 0
        TST.B     r10                   ; [] |45| 
        JNE       $C$L13                ; [] |45| 
                                          ; [] |45| 
;* --------------------------------------------------------------------------*
	.dwpsn	file "../print_result.c",line 48,column 4,is_stmt,isa 0
        MOVX.A    #temp_sensor+0,r12    ; [] |48| 
$C$DW$46	.dwtag  DW_TAG_TI_branch
	.dwattr $C$DW$46, DW_AT_low_pc(0x00)
	.dwattr $C$DW$46, DW_AT_name("print_string")
	.dwattr $C$DW$46, DW_AT_TI_call
        CALLA     #print_string         ; [] |48| 
                                          ; [] |48| 
        JMP       $C$L23                ; [] |48| 
                                          ; [] |48| 
;* --------------------------------------------------------------------------*
$C$L13:    
	.dwpsn	file "../print_result.c",line 46,column 4,is_stmt,isa 0
        MOVX.A    #error_temp+0,r12     ; [] |46| 
$C$DW$47	.dwtag  DW_TAG_TI_branch
	.dwattr $C$DW$47, DW_AT_low_pc(0x00)
	.dwattr $C$DW$47, DW_AT_name("print_string")
	.dwattr $C$DW$47, DW_AT_TI_call
        CALLA     #print_string         ; [] |46| 
                                          ; [] |46| 
        JMP       $C$L23                ; [] |46| 
                                          ; [] |46| 
;* --------------------------------------------------------------------------*
$C$L14:    
	.dwpsn	file "../print_result.c",line 39,column 4,is_stmt,isa 0
        TST.B     r10                   ; [] |39| 
        JNE       $C$L15                ; [] |39| 
                                          ; [] |39| 
;* --------------------------------------------------------------------------*
	.dwpsn	file "../print_result.c",line 42,column 4,is_stmt,isa 0
        MOVX.A    #Amb_Light_sensor+0,r12 ; [] |42| 
$C$DW$48	.dwtag  DW_TAG_TI_branch
	.dwattr $C$DW$48, DW_AT_low_pc(0x00)
	.dwattr $C$DW$48, DW_AT_name("print_string")
	.dwattr $C$DW$48, DW_AT_TI_call
        CALLA     #print_string         ; [] |42| 
                                          ; [] |42| 
        JMP       $C$L23                ; [] |42| 
                                          ; [] |42| 
;* --------------------------------------------------------------------------*
$C$L15:    
	.dwpsn	file "../print_result.c",line 40,column 4,is_stmt,isa 0
        MOVX.A    #error_light+0,r12    ; [] |40| 
$C$DW$49	.dwtag  DW_TAG_TI_branch
	.dwattr $C$DW$49, DW_AT_low_pc(0x00)
	.dwattr $C$DW$49, DW_AT_name("print_string")
	.dwattr $C$DW$49, DW_AT_TI_call
        CALLA     #print_string         ; [] |40| 
                                          ; [] |40| 
        JMP       $C$L23                ; [] |40| 
                                          ; [] |40| 
;* --------------------------------------------------------------------------*
$C$L16:    
	.dwpsn	file "../print_result.c",line 33,column 4,is_stmt,isa 0
        TST.B     r10                   ; [] |33| 
        JNE       $C$L17                ; [] |33| 
                                          ; [] |33| 
;* --------------------------------------------------------------------------*
	.dwpsn	file "../print_result.c",line 36,column 4,is_stmt,isa 0
        MOVX.A    #Fuel_Guage_data+0,r12 ; [] |36| 
$C$DW$50	.dwtag  DW_TAG_TI_branch
	.dwattr $C$DW$50, DW_AT_low_pc(0x00)
	.dwattr $C$DW$50, DW_AT_name("print_string")
	.dwattr $C$DW$50, DW_AT_TI_call
        CALLA     #print_string         ; [] |36| 
                                          ; [] |36| 
        JMP       $C$L23                ; [] |36| 
                                          ; [] |36| 
;* --------------------------------------------------------------------------*
$C$L17:    
	.dwpsn	file "../print_result.c",line 34,column 4,is_stmt,isa 0
        MOVX.A    #error_fuel_guage+0,r12 ; [] |34| 
$C$DW$51	.dwtag  DW_TAG_TI_branch
	.dwattr $C$DW$51, DW_AT_low_pc(0x00)
	.dwattr $C$DW$51, DW_AT_name("print_string")
	.dwattr $C$DW$51, DW_AT_TI_call
        CALLA     #print_string         ; [] |34| 
                                          ; [] |34| 
        JMP       $C$L23                ; [] |34| 
                                          ; [] |34| 
;* --------------------------------------------------------------------------*
$C$L18:    
	.dwpsn	file "../print_result.c",line 27,column 4,is_stmt,isa 0
        TST.B     r10                   ; [] |27| 
        JNE       $C$L19                ; [] |27| 
                                          ; [] |27| 
;* --------------------------------------------------------------------------*
	.dwpsn	file "../print_result.c",line 30,column 4,is_stmt,isa 0
        MOVX.A    #flash_failure+0,r12  ; [] |30| 
$C$DW$52	.dwtag  DW_TAG_TI_branch
	.dwattr $C$DW$52, DW_AT_low_pc(0x00)
	.dwattr $C$DW$52, DW_AT_name("print_string")
	.dwattr $C$DW$52, DW_AT_TI_call
        CALLA     #print_string         ; [] |30| 
                                          ; [] |30| 
        JMP       $C$L23                ; [] |30| 
                                          ; [] |30| 
;* --------------------------------------------------------------------------*
$C$L19:    
	.dwpsn	file "../print_result.c",line 28,column 4,is_stmt,isa 0
        MOVX.A    #flash_success+0,r12  ; [] |28| 
$C$DW$53	.dwtag  DW_TAG_TI_branch
	.dwattr $C$DW$53, DW_AT_low_pc(0x00)
	.dwattr $C$DW$53, DW_AT_name("print_string")
	.dwattr $C$DW$53, DW_AT_TI_call
        CALLA     #print_string         ; [] |28| 
                                          ; [] |28| 
        JMP       $C$L23                ; [] |28| 
                                          ; [] |28| 
;* --------------------------------------------------------------------------*
$C$L20:    
	.dwpsn	file "../print_result.c",line 21,column 4,is_stmt,isa 0
        TST.B     r10                   ; [] |21| 
        JNE       $C$L21                ; [] |21| 
                                          ; [] |21| 
;* --------------------------------------------------------------------------*
	.dwpsn	file "../print_result.c",line 24,column 4,is_stmt,isa 0
        MOVX.A    #EEPROM_data+0,r12    ; [] |24| 
$C$DW$54	.dwtag  DW_TAG_TI_branch
	.dwattr $C$DW$54, DW_AT_low_pc(0x00)
	.dwattr $C$DW$54, DW_AT_name("print_string")
	.dwattr $C$DW$54, DW_AT_TI_call
        CALLA     #print_string         ; [] |24| 
                                          ; [] |24| 
        JMP       $C$L23                ; [] |24| 
                                          ; [] |24| 
;* --------------------------------------------------------------------------*
$C$L21:    
	.dwpsn	file "../print_result.c",line 22,column 4,is_stmt,isa 0
        MOVX.A    #error_EEPROM+0,r12   ; [] |22| 
$C$DW$55	.dwtag  DW_TAG_TI_branch
	.dwattr $C$DW$55, DW_AT_low_pc(0x00)
	.dwattr $C$DW$55, DW_AT_name("print_string")
	.dwattr $C$DW$55, DW_AT_TI_call
        CALLA     #print_string         ; [] |22| 
                                          ; [] |22| 
        JMP       $C$L23                ; [] |22| 
                                          ; [] |22| 
;* --------------------------------------------------------------------------*
$C$L22:    
	.dwpsn	file "../print_result.c",line 16,column 4,is_stmt,isa 0
        MOVX.A    #svs_data+0,r12       ; [] |16| 
$C$DW$56	.dwtag  DW_TAG_TI_branch
	.dwattr $C$DW$56, DW_AT_low_pc(0x00)
	.dwattr $C$DW$56, DW_AT_name("print_string")
	.dwattr $C$DW$56, DW_AT_TI_call
        CALLA     #print_string         ; [] |16| 
                                          ; [] |16| 
	.dwpsn	file "../print_result.c",line 17,column 4,is_stmt,isa 0
        MOVX.A    &svs_voltage+0,r12    ; [] |17| 
$C$DW$57	.dwtag  DW_TAG_TI_branch
	.dwattr $C$DW$57, DW_AT_low_pc(0x00)
	.dwattr $C$DW$57, DW_AT_name("print_string")
	.dwattr $C$DW$57, DW_AT_TI_call
        CALLA     #print_string         ; [] |17| 
                                          ; [] |17| 
	.dwpsn	file "../print_result.c",line 18,column 4,is_stmt,isa 0
        MOV.B     r10,r10               ; [] |18| 
        RRUM.W    #4,r10                ; [] |18| 
        RLAM.W    #2,r10                ; [] |18| 
        MOVX.A    svs_voltage+0(r10),r12 ; [] |18| 
$C$DW$58	.dwtag  DW_TAG_TI_branch
	.dwattr $C$DW$58, DW_AT_low_pc(0x00)
	.dwattr $C$DW$58, DW_AT_name("print_string")
	.dwattr $C$DW$58, DW_AT_TI_call
        CALLA     #print_string         ; [] |18| 
                                          ; [] |18| 
;* --------------------------------------------------------------------------*
$C$L23:    
	.dwpsn	file "../print_result.c",line 84,column 1,is_stmt,isa 0
        POPM.A    #1,r10                ; [] 
	.dwcfi	restore_reg, 10
	.dwcfi	cfa_offset, 4
$C$DW$59	.dwtag  DW_TAG_TI_branch
	.dwattr $C$DW$59, DW_AT_low_pc(0x00)
	.dwattr $C$DW$59, DW_AT_TI_return
        RETA      ; [] 
        ; [] 
	.dwattr $C$DW$32, DW_AT_TI_end_file("../print_result.c")
	.dwattr $C$DW$32, DW_AT_TI_end_line(0x54)
	.dwattr $C$DW$32, DW_AT_TI_end_column(0x01)
	.dwendentry
	.dwendtag $C$DW$32

	.sect	".text:print_raw"
	.clink
	.global	print_raw

$C$DW$60	.dwtag  DW_TAG_subprogram, DW_AT_name("print_raw")
	.dwattr $C$DW$60, DW_AT_low_pc(print_raw)
	.dwattr $C$DW$60, DW_AT_high_pc(0x00)
	.dwattr $C$DW$60, DW_AT_TI_symbol_name("print_raw")
	.dwattr $C$DW$60, DW_AT_external
	.dwattr $C$DW$60, DW_AT_TI_begin_file("../print_result.c")
	.dwattr $C$DW$60, DW_AT_TI_begin_line(0x56)
	.dwattr $C$DW$60, DW_AT_TI_begin_column(0x06)
	.dwattr $C$DW$60, DW_AT_decl_file("../print_result.c")
	.dwattr $C$DW$60, DW_AT_decl_line(0x56)
	.dwattr $C$DW$60, DW_AT_decl_column(0x06)
	.dwattr $C$DW$60, DW_AT_TI_max_frame_size(0x04)
	.dwpsn	file "../print_result.c",line 86,column 34,is_stmt,address print_raw,isa 0

	.dwfde $C$DW$CIE, print_raw
$C$DW$61	.dwtag  DW_TAG_formal_parameter, DW_AT_name("raw")
	.dwattr $C$DW$61, DW_AT_TI_symbol_name("raw")
	.dwattr $C$DW$61, DW_AT_type(*$C$DW$T$6)
	.dwattr $C$DW$61, DW_AT_location[DW_OP_reg12]

;*****************************************************************************
;* FUNCTION NAME: print_raw                                                  *
;*                                                                           *
;*   Regs Modified     : SP,SR,r11,r12,r13,r14,r15                           *
;*   Regs Used         : SP,SR,r11,r12,r13,r14,r15                           *
;*   Local Frame Size  : 0 Args + 0 Auto + 0 Save = 0 byte                   *
;*****************************************************************************
print_raw:
;* --------------------------------------------------------------------------*
	.dwcfi	cfa_offset, 4
	.dwcfi	save_reg_to_mem, 16, -4
	.dwpsn	file "../print_result.c",line 88,column 2,is_stmt,isa 0
$C$DW$62	.dwtag  DW_TAG_TI_branch
	.dwattr $C$DW$62, DW_AT_low_pc(0x00)
	.dwattr $C$DW$62, DW_AT_name("transmit_115200")
	.dwattr $C$DW$62, DW_AT_TI_call
        CALLA     #transmit_115200      ; [] |88| 
                                          ; [] |88| 
	.dwpsn	file "../print_result.c",line 89,column 1,is_stmt,isa 0
$C$DW$63	.dwtag  DW_TAG_TI_branch
	.dwattr $C$DW$63, DW_AT_low_pc(0x00)
	.dwattr $C$DW$63, DW_AT_TI_return
        RETA      ; [] 
        ; [] 
	.dwattr $C$DW$60, DW_AT_TI_end_file("../print_result.c")
	.dwattr $C$DW$60, DW_AT_TI_end_line(0x59)
	.dwattr $C$DW$60, DW_AT_TI_end_column(0x01)
	.dwendentry
	.dwendtag $C$DW$60

	.sect	".text:new_line"
	.clink
	.global	new_line

$C$DW$64	.dwtag  DW_TAG_subprogram, DW_AT_name("new_line")
	.dwattr $C$DW$64, DW_AT_low_pc(new_line)
	.dwattr $C$DW$64, DW_AT_high_pc(0x00)
	.dwattr $C$DW$64, DW_AT_TI_symbol_name("new_line")
	.dwattr $C$DW$64, DW_AT_external
	.dwattr $C$DW$64, DW_AT_TI_begin_file("../print_result.c")
	.dwattr $C$DW$64, DW_AT_TI_begin_line(0x5a)
	.dwattr $C$DW$64, DW_AT_TI_begin_column(0x06)
	.dwattr $C$DW$64, DW_AT_decl_file("../print_result.c")
	.dwattr $C$DW$64, DW_AT_decl_line(0x5a)
	.dwattr $C$DW$64, DW_AT_decl_column(0x06)
	.dwattr $C$DW$64, DW_AT_TI_max_frame_size(0x04)
	.dwpsn	file "../print_result.c",line 90,column 20,is_stmt,address new_line,isa 0

	.dwfde $C$DW$CIE, new_line

;*****************************************************************************
;* FUNCTION NAME: new_line                                                   *
;*                                                                           *
;*   Regs Modified     : SP,SR,r11,r12,r13,r14,r15                           *
;*   Regs Used         : SP,SR,r11,r12,r13,r14,r15                           *
;*   Local Frame Size  : 0 Args + 0 Auto + 0 Save = 0 byte                   *
;*****************************************************************************
new_line:
;* --------------------------------------------------------------------------*
	.dwcfi	cfa_offset, 4
	.dwcfi	save_reg_to_mem, 16, -4
	.dwpsn	file "../print_result.c",line 92,column 2,is_stmt,isa 0
        MOVX.A    #new_line_char+0,r12  ; [] |92| 
$C$DW$65	.dwtag  DW_TAG_TI_branch
	.dwattr $C$DW$65, DW_AT_low_pc(0x00)
	.dwattr $C$DW$65, DW_AT_name("print_string")
	.dwattr $C$DW$65, DW_AT_TI_call
        CALLA     #print_string         ; [] |92| 
                                          ; [] |92| 
	.dwpsn	file "../print_result.c",line 93,column 1,is_stmt,isa 0
$C$DW$66	.dwtag  DW_TAG_TI_branch
	.dwattr $C$DW$66, DW_AT_low_pc(0x00)
	.dwattr $C$DW$66, DW_AT_TI_return
        RETA      ; [] 
        ; [] 
	.dwattr $C$DW$64, DW_AT_TI_end_file("../print_result.c")
	.dwattr $C$DW$64, DW_AT_TI_end_line(0x5d)
	.dwattr $C$DW$64, DW_AT_TI_end_column(0x01)
	.dwendentry
	.dwendtag $C$DW$64

	.sect	".text:print_logo"
	.clink
	.global	print_logo

$C$DW$67	.dwtag  DW_TAG_subprogram, DW_AT_name("print_logo")
	.dwattr $C$DW$67, DW_AT_low_pc(print_logo)
	.dwattr $C$DW$67, DW_AT_high_pc(0x00)
	.dwattr $C$DW$67, DW_AT_TI_symbol_name("print_logo")
	.dwattr $C$DW$67, DW_AT_external
	.dwattr $C$DW$67, DW_AT_TI_begin_file("../print_result.c")
	.dwattr $C$DW$67, DW_AT_TI_begin_line(0x5e)
	.dwattr $C$DW$67, DW_AT_TI_begin_column(0x06)
	.dwattr $C$DW$67, DW_AT_decl_file("../print_result.c")
	.dwattr $C$DW$67, DW_AT_decl_line(0x5e)
	.dwattr $C$DW$67, DW_AT_decl_column(0x06)
	.dwattr $C$DW$67, DW_AT_TI_max_frame_size(0x04)
	.dwpsn	file "../print_result.c",line 94,column 22,is_stmt,address print_logo,isa 0

	.dwfde $C$DW$CIE, print_logo

;*****************************************************************************
;* FUNCTION NAME: print_logo                                                 *
;*                                                                           *
;*   Regs Modified     : SP,SR,r11,r12,r13,r14,r15                           *
;*   Regs Used         : SP,SR,r11,r12,r13,r14,r15                           *
;*   Local Frame Size  : 0 Args + 0 Auto + 0 Save = 0 byte                   *
;*****************************************************************************
print_logo:
;* --------------------------------------------------------------------------*
	.dwcfi	cfa_offset, 4
	.dwcfi	save_reg_to_mem, 16, -4
	.dwpsn	file "../print_result.c",line 96,column 2,is_stmt,isa 0
        MOVX.A    #logo+0,r12           ; [] |96| 
$C$DW$68	.dwtag  DW_TAG_TI_branch
	.dwattr $C$DW$68, DW_AT_low_pc(0x00)
	.dwattr $C$DW$68, DW_AT_name("print_string")
	.dwattr $C$DW$68, DW_AT_TI_call
        CALLA     #print_string         ; [] |96| 
                                          ; [] |96| 
	.dwpsn	file "../print_result.c",line 97,column 1,is_stmt,isa 0
$C$DW$69	.dwtag  DW_TAG_TI_branch
	.dwattr $C$DW$69, DW_AT_low_pc(0x00)
	.dwattr $C$DW$69, DW_AT_TI_return
        RETA      ; [] 
        ; [] 
	.dwattr $C$DW$67, DW_AT_TI_end_file("../print_result.c")
	.dwattr $C$DW$67, DW_AT_TI_end_line(0x61)
	.dwattr $C$DW$67, DW_AT_TI_end_column(0x01)
	.dwendentry
	.dwendtag $C$DW$67

;******************************************************************************
;* FAR STRINGS                                                                *
;******************************************************************************
	.sect	".const:.string"
	.align	2
$C$FSL1:	.string	"Threshold voltage setted is ",0
	.align	2
$C$FSL2:	.string	"1.9 V",10,13,0,0
	.align	2
$C$FSL3:	.string	"2.1 V",10,13,0,0
	.align	2
$C$FSL4:	.string	"2.2 V",10,13,0,0
	.align	2
$C$FSL5:	.string	"2.3 V",10,13,0,0
	.align	2
$C$FSL6:	.string	"2.4 V",10,13,0,0
	.align	2
$C$FSL7:	.string	"2.5 V",10,13,0,0
	.align	2
$C$FSL8:	.string	"2.65 V",10,13,0,0
	.align	2
$C$FSL9:	.string	"2.8 V",10,13,0,0
	.align	2
$C$FSL10:	.string	"2.9 V",10,13,0,0
	.align	2
$C$FSL11:	.string	"3.05 V",10,13,0,0
	.align	2
$C$FSL12:	.string	"3.2 V",10,13,0,0
	.align	2
$C$FSL13:	.string	"3.35 V",10,13,0,0
	.align	2
$C$FSL14:	.string	"3.5 V",10,13,0,0
	.align	2
$C$FSL15:	.string	"3.7 V",10,13,0,0
;*****************************************************************************
;* UNDEFINED EXTERNAL REFERENCES                                             *
;*****************************************************************************
	.global	transmit_115200

;******************************************************************************
;* BUILD ATTRIBUTES                                                           *
;******************************************************************************
	.battr "TI", Tag_File, 1, Tag_LPM_INFO(1)
	.battr "TI", Tag_File, 1, Tag_PORTS_INIT_INFO("012345678901ABCDEFGHIJ01111111100010000000000000000000000000000000")
	.battr "TI", Tag_File, 1, Tag_HW_MPY32_INFO(1)
	.battr "TI", Tag_File, 1, Tag_HW_MPY_ISR_INFO(1)
	.battr "TI", Tag_File, 1, Tag_HW_MPY_INLINE_INFO(1)
	.battr "mspabi", Tag_File, 1, Tag_enum_size(2)

;******************************************************************************
;* TYPE INFORMATION                                                           *
;******************************************************************************
$C$DW$T$2	.dwtag  DW_TAG_unspecified_type
	.dwattr $C$DW$T$2, DW_AT_name("void")

$C$DW$T$28	.dwtag  DW_TAG_subroutine_type
	.dwattr $C$DW$T$28, DW_AT_language(DW_LANG_C)
$C$DW$T$29	.dwtag  DW_TAG_pointer_type
	.dwattr $C$DW$T$29, DW_AT_type(*$C$DW$T$28)
	.dwattr $C$DW$T$29, DW_AT_address_class(0x14)
$C$DW$T$30	.dwtag  DW_TAG_typedef, DW_AT_name("__SFR_FARPTR")
	.dwattr $C$DW$T$30, DW_AT_type(*$C$DW$T$29)
	.dwattr $C$DW$T$30, DW_AT_language(DW_LANG_C)
	.dwattr $C$DW$T$30, DW_AT_decl_file("D:/Program Files/ccsv6/ccs_base/msp430/include/msp430f2618.h")
	.dwattr $C$DW$T$30, DW_AT_decl_line(0x47)
	.dwattr $C$DW$T$30, DW_AT_decl_column(0x11)
$C$DW$T$4	.dwtag  DW_TAG_base_type
	.dwattr $C$DW$T$4, DW_AT_encoding(DW_ATE_boolean)
	.dwattr $C$DW$T$4, DW_AT_name("bool")
	.dwattr $C$DW$T$4, DW_AT_byte_size(0x01)
$C$DW$T$5	.dwtag  DW_TAG_base_type
	.dwattr $C$DW$T$5, DW_AT_encoding(DW_ATE_signed_char)
	.dwattr $C$DW$T$5, DW_AT_name("signed char")
	.dwattr $C$DW$T$5, DW_AT_byte_size(0x01)
$C$DW$T$6	.dwtag  DW_TAG_base_type
	.dwattr $C$DW$T$6, DW_AT_encoding(DW_ATE_unsigned_char)
	.dwattr $C$DW$T$6, DW_AT_name("unsigned char")
	.dwattr $C$DW$T$6, DW_AT_byte_size(0x01)
$C$DW$T$7	.dwtag  DW_TAG_base_type
	.dwattr $C$DW$T$7, DW_AT_encoding(DW_ATE_signed_char)
	.dwattr $C$DW$T$7, DW_AT_name("wchar_t")
	.dwattr $C$DW$T$7, DW_AT_byte_size(0x02)
$C$DW$T$8	.dwtag  DW_TAG_base_type
	.dwattr $C$DW$T$8, DW_AT_encoding(DW_ATE_signed)
	.dwattr $C$DW$T$8, DW_AT_name("short")
	.dwattr $C$DW$T$8, DW_AT_byte_size(0x02)
$C$DW$T$9	.dwtag  DW_TAG_base_type
	.dwattr $C$DW$T$9, DW_AT_encoding(DW_ATE_unsigned)
	.dwattr $C$DW$T$9, DW_AT_name("unsigned short")
	.dwattr $C$DW$T$9, DW_AT_byte_size(0x02)
$C$DW$T$10	.dwtag  DW_TAG_base_type
	.dwattr $C$DW$T$10, DW_AT_encoding(DW_ATE_signed)
	.dwattr $C$DW$T$10, DW_AT_name("int")
	.dwattr $C$DW$T$10, DW_AT_byte_size(0x02)
$C$DW$T$11	.dwtag  DW_TAG_base_type
	.dwattr $C$DW$T$11, DW_AT_encoding(DW_ATE_unsigned)
	.dwattr $C$DW$T$11, DW_AT_name("unsigned int")
	.dwattr $C$DW$T$11, DW_AT_byte_size(0x02)
$C$DW$T$12	.dwtag  DW_TAG_base_type
	.dwattr $C$DW$T$12, DW_AT_encoding(DW_ATE_signed)
	.dwattr $C$DW$T$12, DW_AT_name("long")
	.dwattr $C$DW$T$12, DW_AT_byte_size(0x04)
$C$DW$T$13	.dwtag  DW_TAG_base_type
	.dwattr $C$DW$T$13, DW_AT_encoding(DW_ATE_unsigned)
	.dwattr $C$DW$T$13, DW_AT_name("unsigned long")
	.dwattr $C$DW$T$13, DW_AT_byte_size(0x04)
$C$DW$T$14	.dwtag  DW_TAG_base_type
	.dwattr $C$DW$T$14, DW_AT_encoding(DW_ATE_signed)
	.dwattr $C$DW$T$14, DW_AT_name("long long")
	.dwattr $C$DW$T$14, DW_AT_byte_size(0x08)
$C$DW$T$15	.dwtag  DW_TAG_base_type
	.dwattr $C$DW$T$15, DW_AT_encoding(DW_ATE_unsigned)
	.dwattr $C$DW$T$15, DW_AT_name("unsigned long long")
	.dwattr $C$DW$T$15, DW_AT_byte_size(0x08)
$C$DW$T$16	.dwtag  DW_TAG_base_type
	.dwattr $C$DW$T$16, DW_AT_encoding(DW_ATE_float)
	.dwattr $C$DW$T$16, DW_AT_name("float")
	.dwattr $C$DW$T$16, DW_AT_byte_size(0x04)
$C$DW$T$17	.dwtag  DW_TAG_base_type
	.dwattr $C$DW$T$17, DW_AT_encoding(DW_ATE_float)
	.dwattr $C$DW$T$17, DW_AT_name("double")
	.dwattr $C$DW$T$17, DW_AT_byte_size(0x08)
$C$DW$T$18	.dwtag  DW_TAG_base_type
	.dwattr $C$DW$T$18, DW_AT_encoding(DW_ATE_float)
	.dwattr $C$DW$T$18, DW_AT_name("long double")
	.dwattr $C$DW$T$18, DW_AT_byte_size(0x08)
$C$DW$T$22	.dwtag  DW_TAG_pointer_type
	.dwattr $C$DW$T$22, DW_AT_type(*$C$DW$T$6)
	.dwattr $C$DW$T$22, DW_AT_address_class(0x14)

$C$DW$T$47	.dwtag  DW_TAG_array_type
	.dwattr $C$DW$T$47, DW_AT_type(*$C$DW$T$22)
	.dwattr $C$DW$T$47, DW_AT_language(DW_LANG_C)
	.dwattr $C$DW$T$47, DW_AT_byte_size(0x3c)
$C$DW$70	.dwtag  DW_TAG_subrange_type
	.dwattr $C$DW$70, DW_AT_upper_bound(0x0e)
	.dwendtag $C$DW$T$47

$C$DW$T$48	.dwtag  DW_TAG_typedef, DW_AT_name("__builtin_va_list")
	.dwattr $C$DW$T$48, DW_AT_type(*$C$DW$T$22)
	.dwattr $C$DW$T$48, DW_AT_language(DW_LANG_C)
	.dwattr $C$DW$T$48, DW_AT_decl_file("../print_result.c")
	.dwattr $C$DW$T$48, DW_AT_decl_line(0x61)
	.dwattr $C$DW$T$48, DW_AT_decl_column(0x01)

$C$DW$T$49	.dwtag  DW_TAG_array_type
	.dwattr $C$DW$T$49, DW_AT_type(*$C$DW$T$6)
	.dwattr $C$DW$T$49, DW_AT_language(DW_LANG_C)
	.dwattr $C$DW$T$49, DW_AT_byte_size(0x117)
$C$DW$71	.dwtag  DW_TAG_subrange_type
	.dwattr $C$DW$71, DW_AT_upper_bound(0x116)
	.dwendtag $C$DW$T$49


$C$DW$T$50	.dwtag  DW_TAG_array_type
	.dwattr $C$DW$T$50, DW_AT_type(*$C$DW$T$6)
	.dwattr $C$DW$T$50, DW_AT_language(DW_LANG_C)
	.dwattr $C$DW$T$50, DW_AT_byte_size(0x03)
$C$DW$72	.dwtag  DW_TAG_subrange_type
	.dwattr $C$DW$72, DW_AT_upper_bound(0x02)
	.dwendtag $C$DW$T$50


$C$DW$T$51	.dwtag  DW_TAG_array_type
	.dwattr $C$DW$T$51, DW_AT_type(*$C$DW$T$6)
	.dwattr $C$DW$T$51, DW_AT_language(DW_LANG_C)
	.dwattr $C$DW$T$51, DW_AT_byte_size(0x29)
$C$DW$73	.dwtag  DW_TAG_subrange_type
	.dwattr $C$DW$73, DW_AT_upper_bound(0x28)
	.dwendtag $C$DW$T$51


$C$DW$T$52	.dwtag  DW_TAG_array_type
	.dwattr $C$DW$T$52, DW_AT_type(*$C$DW$T$6)
	.dwattr $C$DW$T$52, DW_AT_language(DW_LANG_C)
	.dwattr $C$DW$T$52, DW_AT_byte_size(0x23)
$C$DW$74	.dwtag  DW_TAG_subrange_type
	.dwattr $C$DW$74, DW_AT_upper_bound(0x22)
	.dwendtag $C$DW$T$52


$C$DW$T$53	.dwtag  DW_TAG_array_type
	.dwattr $C$DW$T$53, DW_AT_type(*$C$DW$T$6)
	.dwattr $C$DW$T$53, DW_AT_language(DW_LANG_C)
	.dwattr $C$DW$T$53, DW_AT_byte_size(0x31)
$C$DW$75	.dwtag  DW_TAG_subrange_type
	.dwattr $C$DW$75, DW_AT_upper_bound(0x30)
	.dwendtag $C$DW$T$53


$C$DW$T$54	.dwtag  DW_TAG_array_type
	.dwattr $C$DW$T$54, DW_AT_type(*$C$DW$T$6)
	.dwattr $C$DW$T$54, DW_AT_language(DW_LANG_C)
	.dwattr $C$DW$T$54, DW_AT_byte_size(0x36)
$C$DW$76	.dwtag  DW_TAG_subrange_type
	.dwattr $C$DW$76, DW_AT_upper_bound(0x35)
	.dwendtag $C$DW$T$54


$C$DW$T$55	.dwtag  DW_TAG_array_type
	.dwattr $C$DW$T$55, DW_AT_type(*$C$DW$T$6)
	.dwattr $C$DW$T$55, DW_AT_language(DW_LANG_C)
	.dwattr $C$DW$T$55, DW_AT_byte_size(0x3d)
$C$DW$77	.dwtag  DW_TAG_subrange_type
	.dwattr $C$DW$77, DW_AT_upper_bound(0x3c)
	.dwendtag $C$DW$T$55


$C$DW$T$56	.dwtag  DW_TAG_array_type
	.dwattr $C$DW$T$56, DW_AT_type(*$C$DW$T$6)
	.dwattr $C$DW$T$56, DW_AT_language(DW_LANG_C)
	.dwattr $C$DW$T$56, DW_AT_byte_size(0x25)
$C$DW$78	.dwtag  DW_TAG_subrange_type
	.dwattr $C$DW$78, DW_AT_upper_bound(0x24)
	.dwendtag $C$DW$T$56


$C$DW$T$57	.dwtag  DW_TAG_array_type
	.dwattr $C$DW$T$57, DW_AT_type(*$C$DW$T$6)
	.dwattr $C$DW$T$57, DW_AT_language(DW_LANG_C)
	.dwattr $C$DW$T$57, DW_AT_byte_size(0x20)
$C$DW$79	.dwtag  DW_TAG_subrange_type
	.dwattr $C$DW$79, DW_AT_upper_bound(0x1f)
	.dwendtag $C$DW$T$57


$C$DW$T$58	.dwtag  DW_TAG_array_type
	.dwattr $C$DW$T$58, DW_AT_type(*$C$DW$T$6)
	.dwattr $C$DW$T$58, DW_AT_language(DW_LANG_C)
	.dwattr $C$DW$T$58, DW_AT_byte_size(0x28)
$C$DW$80	.dwtag  DW_TAG_subrange_type
	.dwattr $C$DW$80, DW_AT_upper_bound(0x27)
	.dwendtag $C$DW$T$58


$C$DW$T$59	.dwtag  DW_TAG_array_type
	.dwattr $C$DW$T$59, DW_AT_type(*$C$DW$T$6)
	.dwattr $C$DW$T$59, DW_AT_language(DW_LANG_C)
	.dwattr $C$DW$T$59, DW_AT_byte_size(0x3c)
$C$DW$81	.dwtag  DW_TAG_subrange_type
	.dwattr $C$DW$81, DW_AT_upper_bound(0x3b)
	.dwendtag $C$DW$T$59


$C$DW$T$60	.dwtag  DW_TAG_array_type
	.dwattr $C$DW$T$60, DW_AT_type(*$C$DW$T$6)
	.dwattr $C$DW$T$60, DW_AT_language(DW_LANG_C)
	.dwattr $C$DW$T$60, DW_AT_byte_size(0x43)
$C$DW$82	.dwtag  DW_TAG_subrange_type
	.dwattr $C$DW$82, DW_AT_upper_bound(0x42)
	.dwendtag $C$DW$T$60


$C$DW$T$61	.dwtag  DW_TAG_array_type
	.dwattr $C$DW$T$61, DW_AT_type(*$C$DW$T$6)
	.dwattr $C$DW$T$61, DW_AT_language(DW_LANG_C)
	.dwattr $C$DW$T$61, DW_AT_byte_size(0x30)
$C$DW$83	.dwtag  DW_TAG_subrange_type
	.dwattr $C$DW$83, DW_AT_upper_bound(0x2f)
	.dwendtag $C$DW$T$61


$C$DW$T$62	.dwtag  DW_TAG_enumeration_type
	.dwattr $C$DW$T$62, DW_AT_name("print_ctrl_defs")
	.dwattr $C$DW$T$62, DW_AT_byte_size(0x02)
$C$DW$84	.dwtag  DW_TAG_enumerator, DW_AT_name("EEPROM"), DW_AT_const_value(0x01)
	.dwattr $C$DW$84, DW_AT_decl_file("F:\Study\MTech\Project\PUFF DATA IIT-M(From Anthony)\PUF Gen_Support\ADC-DAC\lib\print_defs.h")
	.dwattr $C$DW$84, DW_AT_decl_line(0x06)
	.dwattr $C$DW$84, DW_AT_decl_column(0x02)
$C$DW$85	.dwtag  DW_TAG_enumerator, DW_AT_name("SVS"), DW_AT_const_value(0x02)
	.dwattr $C$DW$85, DW_AT_decl_file("F:\Study\MTech\Project\PUFF DATA IIT-M(From Anthony)\PUF Gen_Support\ADC-DAC\lib\print_defs.h")
	.dwattr $C$DW$85, DW_AT_decl_line(0x07)
	.dwattr $C$DW$85, DW_AT_decl_column(0x02)
$C$DW$86	.dwtag  DW_TAG_enumerator, DW_AT_name("FLASH"), DW_AT_const_value(0x03)
	.dwattr $C$DW$86, DW_AT_decl_file("F:\Study\MTech\Project\PUFF DATA IIT-M(From Anthony)\PUF Gen_Support\ADC-DAC\lib\print_defs.h")
	.dwattr $C$DW$86, DW_AT_decl_line(0x08)
	.dwattr $C$DW$86, DW_AT_decl_column(0x02)
$C$DW$87	.dwtag  DW_TAG_enumerator, DW_AT_name("FUEL_GUAGE"), DW_AT_const_value(0x04)
	.dwattr $C$DW$87, DW_AT_decl_file("F:\Study\MTech\Project\PUFF DATA IIT-M(From Anthony)\PUF Gen_Support\ADC-DAC\lib\print_defs.h")
	.dwattr $C$DW$87, DW_AT_decl_line(0x09)
	.dwattr $C$DW$87, DW_AT_decl_column(0x02)
$C$DW$88	.dwtag  DW_TAG_enumerator, DW_AT_name("LIGHT_SENSOR"), DW_AT_const_value(0x05)
	.dwattr $C$DW$88, DW_AT_decl_file("F:\Study\MTech\Project\PUFF DATA IIT-M(From Anthony)\PUF Gen_Support\ADC-DAC\lib\print_defs.h")
	.dwattr $C$DW$88, DW_AT_decl_line(0x0a)
	.dwattr $C$DW$88, DW_AT_decl_column(0x02)
$C$DW$89	.dwtag  DW_TAG_enumerator, DW_AT_name("TEMPERATURE_SENSOR"), DW_AT_const_value(0x06)
	.dwattr $C$DW$89, DW_AT_decl_file("F:\Study\MTech\Project\PUFF DATA IIT-M(From Anthony)\PUF Gen_Support\ADC-DAC\lib\print_defs.h")
	.dwattr $C$DW$89, DW_AT_decl_line(0x0b)
	.dwattr $C$DW$89, DW_AT_decl_column(0x02)
$C$DW$90	.dwtag  DW_TAG_enumerator, DW_AT_name("PROXIMITY_SENSOR"), DW_AT_const_value(0x07)
	.dwattr $C$DW$90, DW_AT_decl_file("F:\Study\MTech\Project\PUFF DATA IIT-M(From Anthony)\PUF Gen_Support\ADC-DAC\lib\print_defs.h")
	.dwattr $C$DW$90, DW_AT_decl_line(0x0c)
	.dwattr $C$DW$90, DW_AT_decl_column(0x02)
$C$DW$91	.dwtag  DW_TAG_enumerator, DW_AT_name("PRESSURE_SENSOR"), DW_AT_const_value(0x08)
	.dwattr $C$DW$91, DW_AT_decl_file("F:\Study\MTech\Project\PUFF DATA IIT-M(From Anthony)\PUF Gen_Support\ADC-DAC\lib\print_defs.h")
	.dwattr $C$DW$91, DW_AT_decl_line(0x0d)
	.dwattr $C$DW$91, DW_AT_decl_column(0x02)
$C$DW$92	.dwtag  DW_TAG_enumerator, DW_AT_name("ADC"), DW_AT_const_value(0x09)
	.dwattr $C$DW$92, DW_AT_decl_file("F:\Study\MTech\Project\PUFF DATA IIT-M(From Anthony)\PUF Gen_Support\ADC-DAC\lib\print_defs.h")
	.dwattr $C$DW$92, DW_AT_decl_line(0x0e)
	.dwattr $C$DW$92, DW_AT_decl_column(0x02)
$C$DW$93	.dwtag  DW_TAG_enumerator, DW_AT_name("IO_EXPANDER"), DW_AT_const_value(0x0a)
	.dwattr $C$DW$93, DW_AT_decl_file("F:\Study\MTech\Project\PUFF DATA IIT-M(From Anthony)\PUF Gen_Support\ADC-DAC\lib\print_defs.h")
	.dwattr $C$DW$93, DW_AT_decl_line(0x0f)
	.dwattr $C$DW$93, DW_AT_decl_column(0x02)
$C$DW$94	.dwtag  DW_TAG_enumerator, DW_AT_name("RTC"), DW_AT_const_value(0x0b)
	.dwattr $C$DW$94, DW_AT_decl_file("F:\Study\MTech\Project\PUFF DATA IIT-M(From Anthony)\PUF Gen_Support\ADC-DAC\lib\print_defs.h")
	.dwattr $C$DW$94, DW_AT_decl_line(0x10)
	.dwattr $C$DW$94, DW_AT_decl_column(0x02)
	.dwendtag $C$DW$T$62

	.dwattr $C$DW$T$62, DW_AT_decl_file("F:\Study\MTech\Project\PUFF DATA IIT-M(From Anthony)\PUF Gen_Support\ADC-DAC\lib\print_defs.h")
	.dwattr $C$DW$T$62, DW_AT_decl_line(0x05)
	.dwattr $C$DW$T$62, DW_AT_decl_column(0x06)
	.dwattr $C$DW$CU, DW_AT_language(DW_LANG_C)

;***************************************************************
;* DWARF CIE ENTRIES                                           *
;***************************************************************

$C$DW$CIE	.dwcie 16
	.dwcfi	cfa_register, 1
	.dwcfi	cfa_offset, 0
	.dwcfi	same_value, 0
	.dwcfi	same_value, 1
	.dwcfi	undefined, 2
	.dwcfi	same_value, 3
	.dwcfi	same_value, 4
	.dwcfi	same_value, 5
	.dwcfi	same_value, 6
	.dwcfi	same_value, 7
	.dwcfi	same_value, 8
	.dwcfi	same_value, 9
	.dwcfi	same_value, 10
	.dwcfi	undefined, 11
	.dwcfi	undefined, 12
	.dwcfi	undefined, 13
	.dwcfi	undefined, 14
	.dwcfi	undefined, 15
	.dwcfi	undefined, 16
	.dwendentry

;***************************************************************
;* DWARF REGISTER MAP                                          *
;***************************************************************

$C$DW$95	.dwtag  DW_TAG_TI_assign_register, DW_AT_name("PC")
	.dwattr $C$DW$95, DW_AT_location[DW_OP_reg0]
$C$DW$96	.dwtag  DW_TAG_TI_assign_register, DW_AT_name("SP")
	.dwattr $C$DW$96, DW_AT_location[DW_OP_reg1]
$C$DW$97	.dwtag  DW_TAG_TI_assign_register, DW_AT_name("SR")
	.dwattr $C$DW$97, DW_AT_location[DW_OP_reg2]
$C$DW$98	.dwtag  DW_TAG_TI_assign_register, DW_AT_name("CG")
	.dwattr $C$DW$98, DW_AT_location[DW_OP_reg3]
$C$DW$99	.dwtag  DW_TAG_TI_assign_register, DW_AT_name("r4")
	.dwattr $C$DW$99, DW_AT_location[DW_OP_reg4]
$C$DW$100	.dwtag  DW_TAG_TI_assign_register, DW_AT_name("r5")
	.dwattr $C$DW$100, DW_AT_location[DW_OP_reg5]
$C$DW$101	.dwtag  DW_TAG_TI_assign_register, DW_AT_name("r6")
	.dwattr $C$DW$101, DW_AT_location[DW_OP_reg6]
$C$DW$102	.dwtag  DW_TAG_TI_assign_register, DW_AT_name("r7")
	.dwattr $C$DW$102, DW_AT_location[DW_OP_reg7]
$C$DW$103	.dwtag  DW_TAG_TI_assign_register, DW_AT_name("r8")
	.dwattr $C$DW$103, DW_AT_location[DW_OP_reg8]
$C$DW$104	.dwtag  DW_TAG_TI_assign_register, DW_AT_name("r9")
	.dwattr $C$DW$104, DW_AT_location[DW_OP_reg9]
$C$DW$105	.dwtag  DW_TAG_TI_assign_register, DW_AT_name("r10")
	.dwattr $C$DW$105, DW_AT_location[DW_OP_reg10]
$C$DW$106	.dwtag  DW_TAG_TI_assign_register, DW_AT_name("r11")
	.dwattr $C$DW$106, DW_AT_location[DW_OP_reg11]
$C$DW$107	.dwtag  DW_TAG_TI_assign_register, DW_AT_name("r12")
	.dwattr $C$DW$107, DW_AT_location[DW_OP_reg12]
$C$DW$108	.dwtag  DW_TAG_TI_assign_register, DW_AT_name("r13")
	.dwattr $C$DW$108, DW_AT_location[DW_OP_reg13]
$C$DW$109	.dwtag  DW_TAG_TI_assign_register, DW_AT_name("r14")
	.dwattr $C$DW$109, DW_AT_location[DW_OP_reg14]
$C$DW$110	.dwtag  DW_TAG_TI_assign_register, DW_AT_name("r15")
	.dwattr $C$DW$110, DW_AT_location[DW_OP_reg15]
$C$DW$111	.dwtag  DW_TAG_TI_assign_register, DW_AT_name("CIE_RETA")
	.dwattr $C$DW$111, DW_AT_location[DW_OP_reg16]
	.dwendtag $C$DW$CU

